(lp0
(iflightmod
Flight
p1
(dp2
S'origin'
p3
S'Naples'
p4
sS'arrival'
p5
I1386943800
sS'aircraft'
p6
S'A319'
p7
sS'flight'
p8
S'U2995'
p9
sS'airline'
p10
S'EasyJet'
p11
sS'departure'
p12
I1386939300
sba(iflightmod
Flight
p13
(dp14
g3
S'London'
p15
sg5
I1386944700
sg6
S'A319'
p16
sg8
S'BA2584'
p17
sg10
S'British Airways'
p18
sg12
I1386937500
sba(iflightmod
Flight
p19
(dp20
S'origin'
p21
S'Rome'
p22
sS'arrival'
p23
I1386945600
sS'aircraft'
p24
S'A320'
p25
sS'flight'
p26
S'AZ1475'
p27
sS'airline'
p28
S'Alitalia'
p29
sS'departure'
p30
I1386941700
sba(iflightmod
Flight
p31
(dp32
g21
S'Tunis'
p33
sg23
I1386945600
sg24
S'A320'
p34
sg26
S'TU472'
p35
sg28
S'Tunisair'
p36
sg30
I1386939600
sba(iflightmod
Flight
p37
(dp38
g21
S'Geneva'
p39
sg23
I1386945900
sg24
S'A319'
p40
sg26
S'U21327'
p41
sg28
S'EasyJet'
p42
sg30
I1386941400
sba(iflightmod
Flight
p43
(dp44
g21
S'Southend'
p45
sg23
I1386946500
sg24
S'A319'
p46
sg26
S'U27397'
p47
sg28
S'EasyJet'
p48
sg30
I1386939300
sba(iflightmod
Flight
p49
(dp50
g21
S'Tirana'
p51
sg23
I1386948300
sg24
S'A320'
p52
sg26
S'AP751'
p53
sg28
S'Air One'
p54
sg30
I1386942300
sba(iflightmod
Flight
p55
(dp56
g21
S'Cologne'
p57
sg23
I1386948900
sg24
S'A319'
p58
sg26
S'4U814'
p59
sg28
S'Germanwings'
p60
sg30
I1386943500
sba(iflightmod
Flight
p61
(dp62
g21
S'Munich'
p63
sg23
I1386948900
sg24
S'E95'
p64
sg26
S'EN8204'
p65
sg28
S'Air Dolomiti'
p66
sg30
I1386945300
sba(iflightmod
Flight
p67
(dp68
g21
S'Lyon'
p69
sg23
I1386949800
sg24
S'E170'
p70
sg26
S'A54526'
p71
sg28
S'HOP!'
p72
sg30
I1386945000
sba(iflightmod
Flight
p73
(dp74
g21
S'Amsterdam'
p75
sg23
I1386950100
sg24
S'B737'
p76
sg26
S'KL1655'
p77
sg28
S'KLM'
p78
sg30
I1386943800
sba(iflightmod
Flight
p79
(dp80
g21
S'Mulhouse'
p81
sg23
I1386950700
sg24
S'A319'
p82
sg26
S'U21163'
p83
sg28
S'EasyJet'
p84
sg30
I1386946800
sba(iflightmod
Flight
p85
(dp86
g21
S'Brussels'
p87
sg23
I1386951900
sg24
S'A319'
p88
sg26
S'SN3205'
p89
sg28
S'Brussels Airlines'
p90
sg30
I1386945900
sba(iflightmod
Flight
p91
(dp92
S'origin'
p93
S'London'
p94
sS'arrival'
p95
I1386952200
sS'aircraft'
p96
S'A319'
p97
sS'flight'
p98
S'U25267'
p99
sS'airline'
p100
S'EasyJet'
p101
sS'departure'
p102
I1386944700
sba(iflightmod
Flight
p103
(dp104
g93
S'Tirana'
p105
sg95
I1386952200
sg96
S'A319'
p106
sg98
S'LZ673'
p107
sg100
S'Belle Air'
p108
sg102
I1386946800
sba(iflightmod
Flight
p109
(dp110
g93
S'Paris'
p111
sg95
I1386952500
sg96
S'A318'
p112
sg98
S'AF1226'
p113
sg100
S'Air France'
p114
sg102
I1386946500
sba(iflightmod
Flight
p115
(dp116
g93
S'Istanbul'
p117
sg95
I1386954000
sg96
S'A320'
p118
sg98
S'TK1869'
p119
sg100
S'Turkish Airlines'
p120
sg102
I1386944700
sba(iflightmod
Flight
p121
(dp122
S'origin'
p123
S'Frankfurt'
p124
sS'arrival'
p125
I1386954600
sS'aircraft'
p126
S'32A'
p127
sS'flight'
p128
S'LH330'
p129
sS'airline'
p130
S'Lufthansa'
p131
sS'departure'
p132
I1386949800
sba(iflightmod
Flight
p133
(dp134
g123
S'Vienna'
p135
sg125
I1386955800
sg126
S'DH4'
p136
sg128
S'OS529'
p137
sg130
S'Austrian Airlines'
p138
sg132
I1386951600
sba(iflightmod
Flight
p139
(dp140
g123
S'London'
p141
sg125
I1386957000
sg126
S'B734'
p142
sg128
S'BA2586'
p143
sg130
S'British Airways'
p144
sg132
I1386950100
sba(iflightmod
Flight
p145
(dp146
g123
S'Naples'
p147
sg125
I1386957000
sg126
S'A319'
p148
sg128
S'U2997'
p149
sg130
S'EasyJet'
p150
sg132
I1386952500
sba(iflightmod
Flight
p151
(dp152
g123
S'Zurich'
p153
sg125
I1386957000
sg126
S'AR1'
p154
sg128
S'LX1664'
p155
sg130
S'Swiss'
p156
sg132
I1386952800
sba(iflightmod
Flight
p157
(dp158
g123
S'Palermo'
p159
sg125
I1386957300
sg126
S'A320'
p160
sg128
S'AP735'
p161
sg130
S'Air One'
p162
sg132
I1386951900
sba(iflightmod
Flight
p163
(dp164
g123
S'Rome'
p165
sg125
I1386957900
sg126
S'E75'
p166
sg128
S'AZ1467'
p167
sg130
S'Alitalia'
p168
sg132
I1386954000
sba(iflightmod
Flight
p169
(dp170
S'origin'
p171
S'Munich'
p172
sS'arrival'
p173
I1386948900
sS'aircraft'
p174
S'E190'
p175
sS'flight'
p176
S'EN8204'
p177
sS'airline'
p178
S'Air Dolomiti'
p179
sS'departure'
p180
I1386945300
sba(iflightmod
Flight
p181
(dp182
g171
S'Nice'
p183
sg173
I1386958200
sg174
S'A319'
p184
sg176
S'U21651'
p185
sg178
S'EasyJet'
p186
sg180
I1386953400
sba(iflightmod
Flight
p187
(dp188
g171
S'Madrid'
p189
sg173
I1386958500
sg174
S'A321'
p190
sg176
S'IB3246'
p191
sg178
S'Iberia'
p192
sg180
I1386949800
sba(iflightmod
Flight
p193
(dp194
g171
S'Paris'
p195
sg173
I1386958800
sg174
S'A320'
p196
sg176
S'U24295'
p197
sg178
S'EasyJet'
p198
sg180
I1386952800
sba(iflightmod
Flight
p199
(dp200
g171
S'Barcelona'
p201
sg173
I1386960300
sg174
S'A320'
p202
sg176
S'VY6402'
p203
sg178
S'Vueling'
p204
sg180
I1386954000
sba(iflightmod
Flight
p205
(dp206
g171
S'Rome'
p207
sg173
I1386961500
sg174
S'32S'
p208
sg176
S'AZ1481'
p209
sg178
S'Alitalia'
p210
sg180
I1386957600
sba(iflightmod
Flight
p211
(dp212
S'origin'
p213
S'Berlin'
p214
sS'arrival'
p215
I1386962100
sS'aircraft'
p216
S'A319'
p217
sS'flight'
p218
S'U24659'
p219
sS'airline'
p220
S'EasyJet'
p221
sS'departure'
p222
I1386955800
sba(iflightmod
Flight
p223
(dp224
g213
S'Paris'
p225
sg215
I1386963000
sg216
S'A319'
p226
sg218
S'U23795'
p227
sg220
S'EasyJet'
p228
sg222
I1386957000
sba(iflightmod
Flight
p229
(dp230
g213
S'Lisbon'
p231
sg215
I1386963300
sg216
S'A319'
p232
sg218
S'U27681'
p233
sg220
S'EasyJet'
p234
sg222
I1386952800
sba(iflightmod
Flight
p235
(dp236
g213
S'Rome'
p237
sg215
I1386966300
sg216
S'A320'
p238
sg218
S'AZ1483'
p239
sg220
S'Alitalia'
p240
sg222
I1386962400
sba(iflightmod
Flight
p241
(dp242
g213
S'Vienna'
p243
sg215
I1386967500
sg216
S'DH4'
p244
sg218
S'OS527'
p245
sg220
S'Austrian Airlines'
p246
sg222
I1386963300
sba(iflightmod
Flight
p247
(dp248
S'origin'
p249
S'Frankfurt'
p250
sS'arrival'
p251
I1386954600
sS'aircraft'
p252
S'A320'
p253
sS'flight'
p254
S'LH330'
p255
sS'airline'
p256
S'Lufthansa'
p257
sS'departure'
p258
I1386949800
sba(iflightmod
Flight
p259
(dp260
g249
S'Zurich'
p261
sg251
I1386957000
sg252
S'RJ1H'
p262
sg254
S'LX1664'
p263
sg256
S'Swiss'
p264
sg258
I1386952800
sba(iflightmod
Flight
p265
(dp266
g249
S'Moscow'
p267
sg251
I1386968400
sg252
S'A320'
p268
sg254
S'SU2422'
p269
sg256
S'Aeroflot'
p270
sg258
I1386956100
sba(iflightmod
Flight
p271
(dp272
g249
S'Paris'
p273
sg251
I1386969000
sg252
S'A319'
p274
sg254
S'AF1326'
p275
sg256
S'Air France'
p276
sg258
I1386963000
sba(iflightmod
Flight
p277
(dp278
g249
S'Amsterdam'
p279
sg251
I1386969600
sg252
S'B737'
p280
sg254
S'KL1659'
p281
sg256
S'KLM'
p282
sg258
I1386963300
sba(iflightmod
Flight
p283
(dp284
g249
S'Rome'
p285
sg251
I1386969900
sg252
S'32S'
p286
sg254
S'AZ1473'
p287
sg256
S'Alitalia'
p288
sg258
I1386966000
sba(iflightmod
Flight
p289
(dp290
g249
S'Munich'
p291
sg251
I1386969900
sg252
S'E95'
p292
sg254
S'EN8206'
p293
sg256
S'Air Dolomiti'
p294
sg258
I1386966300
sba(iflightmod
Flight
p295
(dp296
g249
S'Brussels'
p297
sg251
I1386970500
sg252
S'AR1'
p298
sg254
S'SN3207'
p299
sg256
S'Brussels Airlines'
p300
sg258
I1386964200
sba(iflightmod
Flight
p301
(dp302
g249
S'Frankfurt'
p303
sg251
I1386972900
sg252
S'A320'
p304
sg254
S'LH332'
p305
sg256
S'Lufthansa'
p306
sg258
I1386968100
sba(iflightmod
Flight
p307
(dp308
S'origin'
p309
S'Catania'
p310
sS'arrival'
p311
I1386973500
sS'aircraft'
p312
S'A320'
p313
sS'flight'
p314
S'AP872'
p315
sS'airline'
p316
S'Air One'
p317
sS'departure'
p318
I1386967500
sba(iflightmod
Flight
p319
(dp320
g309
S'Catania'
p321
sg311
I1386974100
sg312
S'B717'
p322
sg314
S'V71265'
p323
sg316
S'Volotea'
p324
sg318
I1386967800
sba(iflightmod
Flight
p325
(dp326
g309
S'Casablanca'
p327
sg311
I1386998400
sg312
S'A320'
p328
sg314
S'3O2477'
p329
sg316
S'Air Arabia Maroc'
p330
sg318
I1386983700
sba(iflightmod
Flight
p331
(dp332
S'origin'
p333
S'Rome'
p334
sS'arrival'
p335
I1386961500
sS'aircraft'
p336
S'A320'
p337
sS'flight'
p338
S'AZ1481'
p339
sS'airline'
p340
S'Alitalia'
p341
sS'departure'
p342
I1386957600
sba(iflightmod
Flight
p343
(dp344
g333
S'Tirana'
p345
sg335
I1387002300
sg336
S'A319'
p346
sg338
S'LZ675'
p347
sg340
S'Belle Air'
p348
sg342
I1386997200
sba(iflightmod
Flight
p349
(dp350
g333
S'Munich'
p351
sg335
I1387004700
sg336
S'E95'
p352
sg338
S'EN8200'
p353
sg340
S'Air Dolomiti'
p354
sg342
I1387001100
sba(iflightmod
Flight
p355
(dp356
g333
S'Zurich'
p357
sg335
I1387006800
sg336
S'AR1'
p358
sg338
S'LX1660'
p359
sg340
S'Swiss'
p360
sg342
I1387002600
sba(iflightmod
Flight
p361
(dp362
g333
S'Paris'
p363
sg335
I1387008000
sg336
S'A318'
p364
sg338
S'AF1126'
p365
sg340
S'Air France'
p366
sg342
I1387002000
sba(iflightmod
Flight
p367
(dp368
g333
S'Paris'
p369
sg335
I1387008000
sg336
S'A320'
p370
sg338
S'U24291'
p371
sg340
S'EasyJet'
p372
sg342
I1387002000
sba(iflightmod
Flight
p373
(dp374
g333
S'Rome'
p375
sg335
I1387009500
sg336
S'E75'
p376
sg338
S'AZ1471'
p377
sg340
S'Alitalia'
p378
sg342
I1387005600
sba(iflightmod
Flight
p379
(dp380
g333
S'Istanbul'
p381
sg335
I1387009500
sg336
S'A321'
p382
sg338
S'TK1867'
p383
sg340
S'Turkish Airlines'
p384
sg342
I1387000500
sba(iflightmod
Flight
p385
(dp386
g333
S'Naples'
p387
sg335
I1387011300
sg336
S'A319'
p388
sg338
S'U2991'
p389
sg340
S'EasyJet'
p390
sg342
I1387006800
sba(iflightmod
Flight
p391
(dp392
S'origin'
p393
S'Vienna'
p394
sS'arrival'
p395
I1387012800
sS'aircraft'
p396
S'DH4'
p397
sS'flight'
p398
S'OS521'
p399
sS'airline'
p400
S'Austrian Airlines'
p401
sS'departure'
p402
I1387008600
sba(iflightmod
Flight
p403
(dp404
g393
S'Frankfurt'
p405
sg395
I1387013100
sg396
S'32A'
p406
sg398
S'LH324'
p407
sg400
S'Lufthansa'
p408
sg402
I1387008300
sba(iflightmod
Flight
p409
(dp410
g393
S'Reggio Calabria'
p411
sg395
I1387014000
sg396
S'B717'
p412
sg398
S'V71249'
p413
sg400
S'Volotea'
p414
sg402
I1387008300
sba(iflightmod
Flight
p415
(dp416
g393
S'London'
p417
sg395
I1387014600
sg396
S'A319'
p418
sg398
S'BA2582'
p419
sg400
S'British Airways'
p420
sg402
I1387007100
sba(iflightmod
Flight
p421
(dp422
g393
S'Dublin'
p423
sg395
I1387015200
sg396
S'A320'
p424
sg398
S'EI422'
p425
sg400
S'Aer Lingus'
p426
sg402
I1387005600
sba(iflightmod
Flight
p427
(dp428
S'origin'
p429
S'Rome'
p430
sS'arrival'
p431
I1386969900
sS'aircraft'
p432
S'A320'
p433
sS'flight'
p434
S'AZ1473'
p435
sS'airline'
p436
S'Alitalia'
p437
sS'departure'
p438
I1386966000
sba(iflightmod
Flight
p439
(dp440
g429
S'Munich'
p441
sg431
I1386969900
sg432
S'E190'
p442
sg434
S'EN8206'
p443
sg436
S'Air Dolomiti'
p444
sg438
I1386966300
sba(iflightmod
Flight
p445
(dp446
g429
S'Brussels'
p447
sg431
I1386970500
sg432
S'RJ1H'
p448
sg434
S'SN3207'
p449
sg436
S'Brussels Airlines'
p450
sg438
I1386964200
sba(iflightmod
Flight
p451
(dp452
g429
S'Catania'
p453
sg431
I1387015800
sg432
S'A320'
p454
sg434
S'AP870'
p455
sg436
S'Air One'
p456
sg438
I1387009800
sba(iflightmod
Flight
p457
(dp458
S'origin'
p459
S'Catania'
p460
sS'arrival'
p461
I1386974100
sS'aircraft'
p462
S'B712'
p463
sS'flight'
p464
S'V71265'
p465
sS'airline'
p466
S'Volotea'
p467
sS'departure'
p468
I1386967800
sba(iflightmod
Flight
p469
(dp470
g459
S'Rome'
p471
sg461
I1387016100
sg462
S'A320'
p472
sg464
S'AZ1463'
p473
sg466
S'Alitalia'
p474
sg468
I1387012200
sba(iflightmod
Flight
p475
(dp476
g459
S'Lyon'
p477
sg461
I1387016400
sg462
S'CR7'
p478
sg464
S'A54522'
p479
sg466
S'HOP!'
p480
sg468
I1387011600
sba(iflightmod
Flight
p481
(dp482
g459
S'Madrid'
p483
sg461
I1387016400
sg462
S'A321'
p484
sg464
S'IB3242'
p485
sg466
S'Iberia'
p486
sg468
I1387007400
sba(iflightmod
Flight
p487
(dp488
g459
S'Berlin'
p489
sg461
I1387017600
sg462
S'A319'
p490
sg464
S'U24651'
p491
sg466
S'EasyJet'
p492
sg468
I1387011300
sba(iflightmod
Flight
p493
(dp494
g459
S'Amsterdam'
p495
sg461
I1387017900
sg462
S'B738'
p496
sg464
S'KL1653'
p497
sg466
S'KLM'
p498
sg468
I1387011300
sba(iflightmod
Flight
p499
(dp500
g459
S'Brussels'
p501
sg461
I1387017900
sg462
S'AR1'
p502
sg464
S'SN3201'
p503
sg466
S'Brussels Airlines'
p504
sg468
I1387011900
sba(iflightmod
Flight
p505
(dp506
g459
S'London'
p507
sg461
I1387017900
sg462
S'A319'
p508
sg464
S'U25263'
p509
sg466
S'EasyJet'
p510
sg468
I1387010400
sba(iflightmod
Flight
p511
(dp512
S'origin'
p513
S'Lisbon'
p514
sS'arrival'
p515
I1387017900
sS'aircraft'
p516
S'A319'
p517
sS'flight'
p518
S'TP874'
p519
sS'airline'
p520
S'TAP Portugal'
p521
sS'departure'
p522
I1387007400
sba(iflightmod
Flight
p523
(dp524
g513
S'Frankfurt'
p525
sg515
I1387018200
sg516
S'A321'
p526
sg518
S'LH326'
p527
sg520
S'Lufthansa'
p528
sg522
I1387013400
sba(iflightmod
Flight
p529
(dp530
g513
S'London'
p531
sg515
I1387018200
sg516
S'A319'
p532
sg518
S'BA578'
p533
sg520
S'British Airways'
p534
sg522
I1387010700
sba(iflightmod
Flight
p535
(dp536
S'origin'
p537
S'Moscow'
p538
sS'arrival'
p539
I1387018200
sS'aircraft'
p540
S'A320'
p541
sS'flight'
p542
S'SU2596'
p543
sS'airline'
p544
S'Aeroflot'
p545
sS'departure'
p546
I1387005900
sba(iflightmod
Flight
p547
(dp548
S'origin'
p549
S'Munich'
p550
sS'arrival'
p551
I1387004700
sS'aircraft'
p552
S'E190'
p553
sS'flight'
p554
S'EN8200'
p555
sS'airline'
p556
S'Air Dolomiti'
p557
sS'departure'
p558
I1387001100
sba(iflightmod
Flight
p559
(dp560
g549
S'Zurich'
p561
sg551
I1387006800
sg552
S'RJ1H'
p562
sg554
S'LX1660'
p563
sg556
S'Swiss'
p564
sg558
I1387002600
sba(iflightmod
Flight
p565
(dp566
g549
S'Munich'
p567
sg551
I1387018500
sg552
S'E95'
p568
sg554
S'EN8202'
p569
sg556
S'Air Dolomiti'
p570
sg558
I1387014900
sba(iflightmod
Flight
p571
(dp572
S'origin'
p573
S'Rome'
p574
sS'arrival'
p575
I1387009500
sS'aircraft'
p576
S'E170'
p577
sS'flight'
p578
S'AZ1471'
p579
sS'airline'
p580
S'Alitalia'
p581
sS'departure'
p582
I1387005600
sba(iflightmod
Flight
p583
(dp584
g573
S'Paris'
p585
sg575
I1387018800
sg576
S'A318'
p586
sg578
S'AF1426'
p587
sg580
S'Air France'
p588
sg582
I1387012800
sba(iflightmod
Flight
p589
(dp590
g573
S'Barcelona'
p591
sg575
I1387020000
sg576
S'A320'
p592
sg578
S'VY6400'
p593
sg580
S'Vueling'
p594
sg582
I1387013700
sba(iflightmod
Flight
p595
(dp596
S'origin'
p597
S'Reggio Calabria'
p598
sS'arrival'
p599
I1387014000
sS'aircraft'
p600
S'B712'
p601
sS'flight'
p602
S'V71249'
p603
sS'airline'
p604
S'Volotea'
p605
sS'departure'
p606
I1387008300
sba(iflightmod
Flight
p607
(dp608
g597
S'Madrid'
p609
sg599
I1387016400
sg600
S'A319'
p610
sg602
S'IB3242'
p611
sg604
S'Iberia'
p612
sg606
I1387007400
sba(iflightmod
Flight
p613
(dp614
g597
S'Paris'
p615
sg599
I1387022100
sg600
S'A319'
p616
sg602
S'U23793'
p617
sg604
S'EasyJet'
p618
sg606
I1387016100
sba(iflightmod
Flight
p619
(dp620
g597
S'Istanbul'
p621
sg599
I1387023600
sg600
S'B738'
p622
sg602
S'TK1871'
p623
sg604
S'Turkish Airlines'
p624
sg606
I1387014600
sba(iflightmod
Flight
p625
(dp626
g597
S'Marseille'
p627
sg599
I1387023900
sg600
S'A319'
p628
sg602
S'AF4332'
p629
sg604
S'Air France'
p630
sg606
I1387019400
sba(iflightmod
Flight
p631
(dp632
g597
S'Frankfurt'
p633
sg599
I1387024500
sg600
S'A320'
p634
sg602
S'LH328'
p635
sg604
S'Lufthansa'
p636
sg606
I1387019700
sba(iflightmod
Flight
p637
(dp638
S'origin'
p639
S'Lyon'
p640
sS'arrival'
p641
I1387016400
sS'aircraft'
p642
S'CRJ7'
p643
sS'flight'
p644
S'A54522'
p645
sS'airline'
p646
S'HOP!'
p647
sS'departure'
p648
I1387011600
sba(iflightmod
Flight
p649
(dp650
g639
S'Doha'
p651
sg641
I1387024800
sg642
S'A320'
p652
sg644
S'QR129'
p653
sg646
S'Qatar Airways'
p654
sg648
I1387001100
sba(iflightmod
Flight
p655
(dp656
g639
S'Dubai'
p657
sg641
I1387025100
sg642
S'B77W'
p658
sg644
S'EK135'
p659
sg646
S'Emirates'
p660
sg648
I1387001100
sba(iflightmod
Flight
p661
(dp662
g639
S'Paris'
p663
sg641
I1387025100
sg642
S'A320'
p664
sg644
S'U24293'
p665
sg646
S'EasyJet'
p666
sg648
I1387019100
sba(iflightmod
Flight
p667
(dp668
g639
S'Zurich'
p669
sg641
I1387026000
sg642
S'A319'
p670
sg644
S'LX1662'
p671
sg646
S'Swiss'
p672
sg648
I1387022100
sba(iflightmod
Flight
p673
(dp674
S'origin'
p675
S'Paris'
p676
sS'arrival'
p677
I1387028400
sS'aircraft'
p678
S'A319'
p679
sS'flight'
p680
S'AF1726'
p681
sS'airline'
p682
S'Air France'
p683
sS'departure'
p684
I1387022400
sba(iflightmod
Flight
p685
(dp686
g675
S'Moscow'
p687
sg677
I1387030200
sg678
S'B738'
p688
sg680
S'UN393'
p689
sg682
S'Transaero Airlines'
p690
sg684
I1387018200
sba(iflightmod
Flight
p691
(dp692
g675
S'London'
p693
sg677
I1387030800
sg678
S'B734'
p694
sg680
S'BA2584'
p695
sg682
S'British Airways'
p696
sg684
I1387023600
sba(iflightmod
Flight
p697
(dp698
g675
S'Palermo'
p699
sg677
I1387030800
sg678
S'A320'
p700
sg680
S'AP735'
p701
sg682
S'Air One'
p702
sg684
I1387025400
sba(iflightmod
Flight
p703
(dp704
g675
S'Rome'
p705
sg677
I1387032000
sg678
S'A320'
p706
sg680
S'AZ1475'
p707
sg682
S'Alitalia'
p708
sg684
I1387028100
sba(iflightmod
Flight
p709
(dp710
g675
S'London'
p711
sg677
I1387034400
sg678
S'A319'
p712
sg680
S'U25267'
p713
sg682
S'EasyJet'
p714
sg684
I1387026900
sba(iflightmod
Flight
p715
(dp716
g675
S'Tirana'
p717
sg677
I1387034700
sg678
S'A320'
p718
sg680
S'AP751'
p719
sg682
S'Air One'
p720
sg684
I1387028700
sba(iflightmod
Flight
p721
(dp722
S'origin'
p723
S'Munich'
p724
sS'arrival'
p725
I1387035300
sS'aircraft'
p726
S'E95'
p727
sS'flight'
p728
S'EN8204'
p729
sS'airline'
p730
S'Air Dolomiti'
p731
sS'departure'
p732
I1387031700
sba(iflightmod
Flight
p733
(dp734
g723
S'Paris'
p735
sg725
I1387038900
sg726
S'A319'
p736
sg728
S'AF1226'
p737
sg730
S'Air France'
p738
sg732
I1387032900
sba(iflightmod
Flight
p739
(dp740
g723
S'Istanbul'
p741
sg725
I1387040400
sg726
S'A320'
p742
sg728
S'TK1869'
p743
sg730
S'Turkish Airlines'
p744
sg732
I1387031100
sba(iflightmod
Flight
p745
(dp746
g723
S'Naples'
p747
sg725
I1387040400
sg726
S'A319'
p748
sg728
S'U2997'
p749
sg730
S'EasyJet'
p750
sg732
I1387035900
sba(iflightmod
Flight
p751
(dp752
g723
S'Frankfurt'
p753
sg725
I1387041000
sg726
S'32A'
p754
sg728
S'LH330'
p755
sg730
S'Lufthansa'
p756
sg732
I1387036200
sba(iflightmod
Flight
p757
(dp758
g723
S'Zurich'
p759
sg725
I1387043400
sg726
S'AR1'
p760
sg728
S'LX1664'
p761
sg730
S'Swiss'
p762
sg732
I1387039200
sba(iflightmod
Flight
p763
(dp764
g723
S'Rome'
p765
sg725
I1387044300
sg726
S'E75'
p766
sg728
S'AZ1467'
p767
sg730
S'Alitalia'
p768
sg732
I1387040400
sba(iflightmod
Flight
p769
(dp770
g723
S'London'
p771
sg725
I1387044600
sg726
S'B734'
p772
sg728
S'BA2586'
p773
sg730
S'British Airways'
p774
sg732
I1387037700
sba(iflightmod
Flight
p775
(dp776
g723
S'Madrid'
p777
sg725
I1387044900
sg726
S'A321'
p778
sg728
S'IB3246'
p779
sg730
S'Iberia'
p780
sg732
I1387036200
sba(iflightmod
Flight
p781
(dp782
g723
S'Tirana'
p783
sg725
I1387045800
sg726
S'B737'
p784
sg728
S'BV3225'
p785
sg730
S'Blue Panorama Airlines'
p786
sg732
I1387040400
sba(iflightmod
Flight
p787
(dp788
S'origin'
p789
S'Zurich'
p790
sS'arrival'
p791
I1387026000
sS'aircraft'
p792
S'A320'
p793
sS'flight'
p794
S'LX1662'
p795
sS'airline'
p796
S'Swiss'
p797
sS'departure'
p798
I1387022100
sba(iflightmod
Flight
p799
(dp800
g789
S'Lamezia Terme'
p801
sg791
I1387046400
sg792
S'A320'
p802
sg794
S'AP729'
p803
sg796
S'Air One'
p804
sg798
I1387041000
sba(iflightmod
Flight
p805
(dp806
g789
S'Moscow'
p807
sg791
I1387054800
sg792
S'A320'
p808
sg794
S'SU2422'
p809
sg796
S'Aeroflot'
p810
sg798
I1387042500
sba(iflightmod
Flight
p811
(dp812
g789
S'Paris'
p813
sg791
I1387055400
sg792
S'A320'
p814
sg794
S'AF1326'
p815
sg796
S'Air France'
p816
sg798
I1387049400
sba(iflightmod
Flight
p817
(dp818
g789
S'Amsterdam'
p819
sg791
I1387056000
sg792
S'B737'
p820
sg794
S'KL1659'
p821
sg796
S'KLM'
p822
sg798
I1387049700
sba(iflightmod
Flight
p823
(dp824
g789
S'Rome'
p825
sg791
I1387056300
sg792
S'A320'
p826
sg794
S'AZ1473'
p827
sg796
S'Alitalia'
p828
sg798
I1387052400
sba(iflightmod
Flight
p829
(dp830
S'origin'
p831
S'Munich'
p832
sS'arrival'
p833
I1387056300
sS'aircraft'
p834
S'E95'
p835
sS'flight'
p836
S'EN8206'
p837
sS'airline'
p838
S'Air Dolomiti'
p839
sS'departure'
p840
I1387052700
sba(iflightmod
Flight
p841
(dp842
g831
S'Frankfurt'
p843
sg833
I1387059300
sg834
S'A321'
p844
sg836
S'LH332'
p845
sg838
S'Lufthansa'
p846
sg840
I1387054500
sba(iflightmod
Flight
p847
(dp848
g831
S'Tirana'
p849
sg833
I1387088700
sg834
S'A319'
p850
sg836
S'LZ675'
p851
sg838
S'Belle Air'
p852
sg840
I1387083600
sba(iflightmod
Flight
p853
(dp854
g831
S'Zurich'
p855
sg833
I1387093200
sg834
S'AR1'
p856
sg836
S'LX1660'
p857
sg838
S'Swiss'
p858
sg840
I1387089000
sba(iflightmod
Flight
p859
(dp860
S'origin'
p861
S'Munich'
p862
sS'arrival'
p863
I1387035300
sS'aircraft'
p864
S'E190'
p865
sS'flight'
p866
S'EN8204'
p867
sS'airline'
p868
S'Air Dolomiti'
p869
sS'departure'
p870
I1387031700
sba(iflightmod
Flight
p871
(dp872
g861
S'Istanbul'
p873
sg863
I1387040400
sg864
S'A319'
p874
sg866
S'TK1869'
p875
sg868
S'Turkish Airlines'
p876
sg870
I1387031100
sba(iflightmod
Flight
p877
(dp878
g861
S'Paris'
p879
sg863
I1387094400
sg864
S'A318'
p880
sg866
S'AF1126'
p881
sg868
S'Air France'
p882
sg870
I1387088400
sba(iflightmod
Flight
p883
(dp884
g861
S'Toulouse'
p885
sg863
I1387095000
sg864
S'A320'
p886
sg866
S'AF4374'
p887
sg868
S'Air France'
p888
sg870
I1387089000
sba(iflightmod
Flight
p889
(dp890
g861
S'Naples'
p891
sg863
I1387095300
sg864
S'A319'
p892
sg866
S'U2993'
p893
sg868
S'EasyJet'
p894
sg870
I1387090500
sba(iflightmod
Flight
p895
(dp896
g861
S'Istanbul'
p897
sg863
I1387095900
sg864
S'A321'
p898
sg866
S'TK1867'
p899
sg868
S'Turkish Airlines'
p900
sg870
I1387086900
sba(iflightmod
Flight
p901
(dp902
S'origin'
p903
S'Frankfurt'
p904
sS'arrival'
p905
I1387041000
sS'aircraft'
p906
S'A320'
p907
sS'flight'
p908
S'LH330'
p909
sS'airline'
p910
S'Lufthansa'
p911
sS'departure'
p912
I1387036200
sba(iflightmod
Flight
p913
(dp914
g903
S'Paris'
p915
sg905
I1387098300
sg906
S'A320'
p916
sg908
S'U24291'
p917
sg910
S'EasyJet'
p918
sg912
I1387092300
sba(iflightmod
Flight
p919
(dp920
g903
S'Vienna'
p921
sg905
I1387099200
sg906
S'DH4'
p922
sg908
S'OS521'
p923
sg910
S'Austrian Airlines'
p924
sg912
I1387095000
sba(iflightmod
Flight
p925
(dp926
g903
S'Frankfurt'
p927
sg905
I1387099500
sg906
S'32A'
p928
sg908
S'LH324'
p929
sg910
S'Lufthansa'
p930
sg912
I1387094700
sba(iflightmod
Flight
p931
(dp932
S'origin'
p933
S'Zurich'
p934
sS'arrival'
p935
I1387043400
sS'aircraft'
p936
S'RJ1H'
p937
sS'flight'
p938
S'LX1664'
p939
sS'airline'
p940
S'Swiss'
p941
sS'departure'
p942
I1387039200
sba(iflightmod
Flight
p943
(dp944
g933
S'Catania'
p945
sg935
I1387100100
sg936
S'A320'
p946
sg938
S'AP870'
p947
sg940
S'Air One'
p948
sg942
I1387094100
sba(iflightmod
Flight
p949
(dp950
S'origin'
p951
S'London'
p952
sS'arrival'
p953
I1387101000
sS'aircraft'
p954
S'B734'
p955
sS'flight'
p956
S'BA2582'
p957
sS'airline'
p958
S'British Airways'
p959
sS'departure'
p960
I1387093500
sba(iflightmod
Flight
p961
(dp962
g951
S'Rome'
p963
sg953
I1387102500
sg954
S'A320'
p964
sg956
S'AZ1463'
p965
sg958
S'Alitalia'
p966
sg960
I1387098600
sba(iflightmod
Flight
p967
(dp968
g951
S'Manchester'
p969
sg953
I1387102500
sg954
S'A319'
p970
sg956
S'U21863'
p971
sg958
S'EasyJet'
p972
sg960
I1387093500
sba(iflightmod
Flight
p973
(dp974
g951
S'Madrid'
p975
sg953
I1387102800
sg954
S'A320'
p976
sg956
S'IB3242'
p977
sg958
S'Iberia'
p978
sg960
I1387093800
sba(iflightmod
Flight
p979
(dp980
g951
S'Bilbao'
p981
sg953
I1387104000
sg954
S'B717'
p982
sg956
S'V71345'
p983
sg958
S'Volotea'
p984
sg960
I1387096200
sba(iflightmod
Flight
p985
(dp986
g951
S'Marseille'
p987
sg953
I1387104000
sg954
S'A319'
p988
sg956
S'AF4332'
p989
sg958
S'Air France'
p990
sg960
I1387099500
sba(iflightmod
Flight
p991
(dp992
g951
S'Amsterdam'
p993
sg953
I1387104300
sg954
S'B737'
p994
sg956
S'KL1653'
p995
sg958
S'KLM'
p996
sg960
I1387097700
sba(iflightmod
Flight
p997
(dp998
g951
S'Bordeaux'
p999
sg953
I1387104600
sg954
S'B717'
p1000
sg956
S'V71347'
p1001
sg958
S'Volotea'
p1002
sg960
I1387098000
sba(iflightmod
Flight
p1003
(dp1004
g951
S'Frankfurt'
p1005
sg953
I1387104600
sg954
S'A321'
p1006
sg956
S'LH326'
p1007
sg958
S'Lufthansa'
p1008
sg960
I1387099800
sba(iflightmod
Flight
p1009
(dp1010
S'origin'
p1011
S'Munich'
p1012
sS'arrival'
p1013
I1387056300
sS'aircraft'
p1014
S'E190'
p1015
sS'flight'
p1016
S'EN8206'
p1017
sS'airline'
p1018
S'Air Dolomiti'
p1019
sS'departure'
p1020
I1387052700
sba(iflightmod
Flight
p1021
(dp1022
S'origin'
p1023
S'London'
p1024
sS'arrival'
p1025
I1387104600
sS'aircraft'
p1026
S'A319'
p1027
sS'flight'
p1028
S'BA578'
p1029
sS'airline'
p1030
S'British Airways'
p1031
sS'departure'
p1032
I1387097100
sba(iflightmod
Flight
p1033
(dp1034
g1023
S'Moscow'
p1035
sg1025
I1387104600
sg1026
S'A320'
p1036
sg1028
S'SU2596'
p1037
sg1030
S'Aeroflot'
p1038
sg1032
I1387092300
sba(iflightmod
Flight
p1039
(dp1040
g1023
S'Munich'
p1041
sg1025
I1387104900
sg1026
S'E95'
p1042
sg1028
S'EN8202'
p1043
sg1030
S'Air Dolomiti'
p1044
sg1032
I1387101300
sba(iflightmod
Flight
p1045
(dp1046
g1023
S'London'
p1047
sg1025
I1387105800
sg1026
S'A319'
p1048
sg1028
S'U25263'
p1049
sg1030
S'EasyJet'
p1050
sg1032
I1387098300
sba(iflightmod
Flight
p1051
(dp1052
g1023
S'Barcelona'
p1053
sg1025
I1387106400
sg1026
S'A320'
p1054
sg1028
S'VY6400'
p1055
sg1030
S'Vueling'
p1056
sg1032
I1387100100
sba(iflightmod
Flight
p1057
(dp1058
S'origin'
p1059
S'Nice'
p1060
sS'arrival'
p1061
I1387106400
sS'aircraft'
p1062
S'A320'
p1063
sS'flight'
p1064
S'U21651'
p1065
sS'airline'
p1066
S'EasyJet'
p1067
sS'departure'
p1068
I1387101600
sba(iflightmod
Flight
p1069
(dp1070
S'origin'
p1071
S'Zurich'
p1072
sS'arrival'
p1073
I1387093200
sS'aircraft'
p1074
S'RJ1H'
p1075
sS'flight'
p1076
S'LX1660'
p1077
sS'airline'
p1078
S'Swiss'
p1079
sS'departure'
p1080
I1387089000
sba(iflightmod
Flight
p1081
(dp1082
g1071
S'Berlin'
p1083
sg1073
I1387107900
sg1074
S'A319'
p1084
sg1076
S'U24651'
p1085
sg1078
S'EasyJet'
p1086
sg1080
I1387101600
sba(iflightmod
Flight
p1087
(dp1088
S'origin'
p1089
S'Istanbul'
p1090
sS'arrival'
p1091
I1387110000
sS'aircraft'
p1092
S'B738'
p1093
sS'flight'
p1094
S'TK1871'
p1095
sS'airline'
p1096
S'Turkish Airlines'
p1097
sS'departure'
p1098
I1387101000
sba(iflightmod
Flight
p1099
(dp1100
S'origin'
p1101
S'Frankfurt'
p1102
sS'arrival'
p1103
I1387099500
sS'aircraft'
p1104
S'A321'
p1105
sS'flight'
p1106
S'LH324'
p1107
sS'airline'
p1108
S'Lufthansa'
p1109
sS'departure'
p1110
I1387094700
sba(iflightmod
Flight
p1111
(dp1112
g1101
S'Bilbao'
p1113
sg1103
I1387104000
sg1104
S'B712'
p1114
sg1106
S'V71345'
p1115
sg1108
S'Volotea'
p1116
sg1110
I1387096200
sba(iflightmod
Flight
p1117
(dp1118
g1101
S'Lyon'
p1119
sg1103
I1387110300
sg1104
S'A319'
p1120
sg1106
S'U24465'
p1121
sg1108
S'EasyJet'
p1122
sg1110
I1387105800
sba(iflightmod
Flight
p1123
(dp1124
g1101
S'Frankfurt'
p1125
sg1103
I1387110900
sg1104
S'A319'
p1126
sg1106
S'LH328'
p1127
sg1108
S'Lufthansa'
p1128
sg1110
I1387106100
sba(iflightmod
Flight
p1129
(dp1130
g1101
S'Doha'
p1131
sg1103
I1387111200
sg1104
S'A320'
p1132
sg1106
S'QR129'
p1133
sg1108
S'Qatar Airways'
p1134
sg1110
I1387087500
sba(iflightmod
Flight
p1135
(dp1136
g1101
S'Dubai'
p1137
sg1103
I1387111500
sg1104
S'B77W'
p1138
sg1106
S'EK135'
p1139
sg1108
S'Emirates'
p1140
sg1110
I1387087500
sba(iflightmod
Flight
p1141
(dp1142
S'origin'
p1143
S'Bordeaux'
p1144
sS'arrival'
p1145
I1387104600
sS'aircraft'
p1146
S'B712'
p1147
sS'flight'
p1148
S'V71347'
p1149
sS'airline'
p1150
S'Volotea'
p1151
sS'departure'
p1152
I1387098000
sba(iflightmod
Flight
p1153
(dp1154
g1143
S'Munich'
p1155
sg1145
I1387104900
sg1146
S'E190'
p1156
sg1148
S'EN8202'
p1157
sg1150
S'Air Dolomiti'
p1158
sg1152
I1387101300
sba(iflightmod
Flight
p1159
(dp1160
g1143
S'Dusseldorf'
p1161
sg1145
I1387111800
sg1146
S'73G'
p1162
sg1148
S'AB8862'
p1163
sg1150
S'Air Berlin'
p1164
sg1152
I1387105500
sba(iflightmod
Flight
p1165
(dp1166
g1143
S'Zurich'
p1167
sg1145
I1387112400
sg1146
S'AR1'
p1168
sg1148
S'LX1662'
p1169
sg1150
S'Swiss'
p1170
sg1152
I1387108500
sba(iflightmod
Flight
p1171
(dp1172
g1143
S'Paris'
p1173
sg1145
I1387113900
sg1146
S'A319'
p1174
sg1148
S'U23793'
p1175
sg1150
S'EasyJet'
p1176
sg1152
I1387107900
sba(iflightmod
Flight
p1177
(dp1178
g1143
S'Prague'
p1179
sg1145
I1387114500
sg1146
S'A320'
p1180
sg1148
S'AP753'
p1181
sg1150
S'Air One'
p1182
sg1152
I1387109400
sba(iflightmod
Flight
p1183
(dp1184
S'origin'
p1185
S'Paris'
p1186
sS'arrival'
p1187
I1387114800
sS'aircraft'
p1188
S'A318'
p1189
sS'flight'
p1190
S'AF1726'
p1191
sS'airline'
p1192
S'Air France'
p1193
sS'departure'
p1194
I1387108800
sba(iflightmod
Flight
p1195
(dp1196
g1185
S'Bari'
p1197
sg1187
I1387116000
sg1188
S'B717'
p1198
sg1190
S'V71235'
p1199
sg1192
S'Volotea'
p1200
sg1194
I1387111500
sba(iflightmod
Flight
p1201
(dp1202
g1185
S'Naples'
p1203
sg1187
I1387116600
sg1188
S'A319'
p1204
sg1190
S'U2995'
p1205
sg1192
S'EasyJet'
p1206
sg1194
I1387112100
sba(iflightmod
Flight
p1207
(dp1208
g1185
S'London'
p1209
sg1187
I1387117500
sg1188
S'A319'
p1210
sg1190
S'BA2584'
p1211
sg1192
S'British Airways'
p1212
sg1194
I1387110300
sba(iflightmod
Flight
p1213
(dp1214
g1185
S'Rome'
p1215
sg1187
I1387118400
sg1188
S'A320'
p1216
sg1190
S'AZ1475'
p1217
sg1192
S'Alitalia'
p1218
sg1194
I1387114500
sba(iflightmod
Flight
p1219
(dp1220
g1185
S'Tunis'
p1221
sg1187
I1387118400
sg1188
S'A320'
p1222
sg1190
S'TU472'
p1223
sg1192
S'Tunisair'
p1224
sg1194
I1387112400
sba(iflightmod
Flight
p1225
(dp1226
S'origin'
p1227
S'Zurich'
p1228
sS'arrival'
p1229
I1387112400
sS'aircraft'
p1230
S'RJ1H'
p1231
sS'flight'
p1232
S'LX1662'
p1233
sS'airline'
p1234
S'Swiss'
p1235
sS'departure'
p1236
I1387108500
sba(iflightmod
Flight
p1237
(dp1238
g1227
S'Chisinau'
p1239
sg1229
I1387120200
sg1230
S'B733'
p1240
sg1232
S'V3260'
p1241
sg1234
S'Carpatair'
p1242
sg1236
I1387111800
sba(iflightmod
Flight
p1243
(dp1244
g1227
S'Stuttgart'
p1245
sg1229
I1387120200
sg1230
S'DH4'
p1246
sg1232
S'AB8984'
p1247
sg1234
S'Air Berlin'
p1248
sg1236
I1387116000
sba(iflightmod
Flight
p1249
(dp1250
g1227
S'Southend'
p1251
sg1229
I1387121100
sg1230
S'A319'
p1252
sg1232
S'U27397'
p1253
sg1234
S'EasyJet'
p1254
sg1236
I1387113900
sba(iflightmod
Flight
p1255
(dp1256
g1227
S'Tirana'
p1257
sg1229
I1387121100
sg1230
S'A320'
p1258
sg1232
S'AP751'
p1259
sg1234
S'Air One'
p1260
sg1236
I1387115100
sba(iflightmod
Flight
p1261
(dp1262
g1227
S'Lisbon'
p1263
sg1229
I1387121400
sg1230
S'A320'
p1264
sg1232
S'TP876'
p1265
sg1234
S'TAP Portugal'
p1266
sg1236
I1387110600
sba(iflightmod
Flight
p1267
(dp1268
g1227
S'Munich'
p1269
sg1229
I1387121700
sg1230
S'E95'
p1270
sg1232
S'EN8204'
p1271
sg1234
S'Air Dolomiti'
p1272
sg1236
I1387118100
sba(iflightmod
Flight
p1273
(dp1274
g1227
S'Cologne'
p1275
sg1229
I1387122300
sg1230
S'A319'
p1276
sg1232
S'4U814'
p1277
sg1234
S'Germanwings'
p1278
sg1236
I1387116900
sba(iflightmod
Flight
p1279
(dp1280
g1227
S'Geneva'
p1281
sg1229
I1387122300
sg1230
S'A319'
p1282
sg1232
S'U21327'
p1283
sg1234
S'EasyJet'
p1284
sg1236
I1387117800
sba(iflightmod
Flight
p1285
(dp1286
g1227
S'Lyon'
p1287
sg1229
I1387122600
sg1230
S'CR7'
p1288
sg1232
S'A54526'
p1289
sg1234
S'HOP!'
p1290
sg1236
I1387117800
sba(iflightmod
Flight
p1291
(dp1292
S'origin'
p1293
S'Lisbon'
p1294
sS'arrival'
p1295
I1387121400
sS'aircraft'
p1296
S'A321'
p1297
sS'flight'
p1298
S'TP876'
p1299
sS'airline'
p1300
S'TAP Portugal'
p1301
sS'departure'
p1302
I1387110600
sba(iflightmod
Flight
p1303
(dp1304
g1293
S'Amsterdam'
p1305
sg1295
I1387122900
sg1296
S'E190'
p1306
sg1298
S'KL1655'
p1307
sg1300
S'KLM'
p1308
sg1302
I1387116600
sba(iflightmod
Flight
p1309
(dp1310
g1293
S'Nantes'
p1311
sg1295
I1387122900
sg1296
S'B717'
p1312
sg1298
S'V72212'
p1313
sg1300
S'Volotea'
p1314
sg1302
I1387116300
sba(iflightmod
Flight
p1315
(dp1316
g1293
S'Mulhouse'
p1317
sg1295
I1387124400
sg1296
S'A319'
p1318
sg1298
S'U21163'
p1319
sg1300
S'EasyJet'
p1320
sg1302
I1387120500
sba(iflightmod
Flight
p1321
(dp1322
g1293
S'Brussels'
p1323
sg1295
I1387124700
sg1296
S'AR1'
p1324
sg1298
S'SN3205'
p1325
sg1300
S'Brussels Airlines'
p1326
sg1302
I1387118700
sba(iflightmod
Flight
p1327
(dp1328
g1293
S'London'
p1329
sg1295
I1387125000
sg1296
S'A320'
p1330
sg1298
S'U25267'
p1331
sg1300
S'EasyJet'
p1332
sg1302
I1387117500
sba(iflightmod
Flight
p1333
(dp1334
S'origin'
p1335
S'Bari'
p1336
sS'arrival'
p1337
I1387116000
sS'aircraft'
p1338
S'B712'
p1339
sS'flight'
p1340
S'V71235'
p1341
sS'airline'
p1342
S'Volotea'
p1343
sS'departure'
p1344
I1387111500
sba(iflightmod
Flight
p1345
(dp1346
g1335
S'Paris'
p1347
sg1337
I1387125300
sg1338
S'A318'
p1348
sg1340
S'AF1226'
p1349
sg1342
S'Air France'
p1350
sg1344
I1387119300
sba(iflightmod
Flight
p1351
(dp1352
g1335
S'Istanbul'
p1353
sg1337
I1387126800
sg1338
S'A320'
p1354
sg1340
S'TK1869'
p1355
sg1342
S'Turkish Airlines'
p1356
sg1344
I1387117500
sba(iflightmod
Flight
p1357
(dp1358
g1335
S'Frankfurt'
p1359
sg1337
I1387127400
sg1338
S'A321'
p1360
sg1340
S'LH330'
p1361
sg1342
S'Lufthansa'
p1362
sg1344
I1387122600
sba(iflightmod
Flight
p1363
(dp1364
g1335
S'Madrid'
p1365
sg1337
I1387127700
sg1338
S'A321'
p1366
sg1340
S'IB3244'
p1367
sg1342
S'Iberia'
p1368
sg1344
I1387119000
sba(iflightmod
Flight
p1369
(dp1370
g1335
S'Manchester'
p1371
sg1337
I1387128000
sg1338
S'A320'
p1372
sg1340
S'ZB1376'
p1373
sg1342
S'Monarch Airlines'
p1374
sg1344
I1387119600
sba(iflightmod
Flight
p1375
(dp1376
g1335
S'Berlin'
p1377
sg1337
I1387128300
sg1338
S'73G'
p1378
sg1340
S'AB8990'
p1379
sg1342
S'Air Berlin'
p1380
sg1344
I1387122600
sba(iflightmod
Flight
p1381
(dp1382
S'origin'
p1383
S'Munich'
p1384
sS'arrival'
p1385
I1387121700
sS'aircraft'
p1386
S'E190'
p1387
sS'flight'
p1388
S'EN8204'
p1389
sS'airline'
p1390
S'Air Dolomiti'
p1391
sS'departure'
p1392
I1387118100
sba(iflightmod
Flight
p1393
(dp1394
g1383
S'Cologne'
p1395
sg1385
I1387122300
sg1386
S'A320'
p1396
sg1388
S'4U814'
p1397
sg1390
S'Germanwings'
p1398
sg1392
I1387116900
sba(iflightmod
Flight
p1399
(dp1400
g1383
S'Nantes'
p1401
sg1385
I1387122900
sg1386
S'B712'
p1402
sg1388
S'V72212'
p1403
sg1390
S'Volotea'
p1404
sg1392
I1387116300
sba(iflightmod
Flight
p1405
(dp1406
g1383
S'Brussels'
p1407
sg1385
I1387124700
sg1386
S'RJ1H'
p1408
sg1388
S'SN3205'
p1409
sg1390
S'Brussels Airlines'
p1410
sg1392
I1387118700
sba(iflightmod
Flight
p1411
(dp1412
g1383
S'Vienna'
p1413
sg1385
I1387128600
sg1386
S'DH4'
p1414
sg1388
S'OS529'
p1415
sg1390
S'Austrian Airlines'
p1416
sg1392
I1387124400
sba(iflightmod
Flight
p1417
(dp1418
g1383
S'London'
p1419
sg1385
I1387129800
sg1386
S'B734'
p1420
sg1388
S'BA2586'
p1421
sg1390
S'British Airways'
p1422
sg1392
I1387122600
sba(iflightmod
Flight
p1423
(dp1424
g1383
S'Naples'
p1425
sg1385
I1387129800
sg1386
S'A319'
p1426
sg1388
S'U2997'
p1427
sg1390
S'EasyJet'
p1428
sg1392
I1387125300
sba(iflightmod
Flight
p1429
(dp1430
g1383
S'Zurich'
p1431
sg1385
I1387129800
sg1386
S'AR1'
p1432
sg1388
S'LX1664'
p1433
sg1390
S'Swiss'
p1434
sg1392
I1387125600
sba(iflightmod
Flight
p1435
(dp1436
g1383
S'Palermo'
p1437
sg1385
I1387130100
sg1386
S'A320'
p1438
sg1388
S'AP735'
p1439
sg1390
S'Air One'
p1440
sg1392
I1387124700
sba(iflightmod
Flight
p1441
(dp1442
S'origin'
p1443
S'Frankfurt'
p1444
sS'arrival'
p1445
I1387127400
sS'aircraft'
p1446
S'A320'
p1447
sS'flight'
p1448
S'LH330'
p1449
sS'airline'
p1450
S'Lufthansa'
p1451
sS'departure'
p1452
I1387122600
sba(iflightmod
Flight
p1453
(dp1454
g1443
S'Madrid'
p1455
sg1445
I1387127700
sg1446
S'A320'
p1456
sg1448
S'IB3244'
p1457
sg1450
S'Iberia'
p1458
sg1452
I1387119000
sba(iflightmod
Flight
p1459
(dp1460
g1443
S'Rome'
p1461
sg1445
I1387130700
sg1446
S'E75'
p1462
sg1448
S'AZ1467'
p1463
sg1450
S'Alitalia'
p1464
sg1452
I1387126800
sba(iflightmod
Flight
p1465
(dp1466
g1443
S'London'
p1467
sg1445
I1387131600
sg1446
S'E170'
p1468
sg1448
S'BA8479'
p1469
sg1450
S'British Airways'
p1470
sg1452
I1387124100
sba(iflightmod
Flight
p1471
(dp1472
g1443
S'Barcelona'
p1473
sg1445
I1387133100
sg1446
S'A320'
p1474
sg1448
S'VY6402'
p1475
sg1450
S'Vueling'
p1476
sg1452
I1387126800
sba(iflightmod
Flight
p1477
(dp1478
g1443
S'Nantes'
p1479
sg1445
I1387133700
sg1446
S'B738'
p1480
sg1448
S'TO3972'
p1481
sg1450
S'Transavia France'
p1482
sg1452
I1387126800
sba(iflightmod
Flight
p1483
(dp1484
g1443
S'Paris'
p1485
sg1445
I1387133700
sg1446
S'B738'
p1486
sg1448
S'TO3342'
p1487
sg1450
S'Transavia France'
p1488
sg1452
I1387127400
sba(iflightmod
Flight
p1489
(dp1490
g1443
S'Rome'
p1491
sg1445
I1387134300
sg1446
S'32S'
p1492
sg1448
S'AZ1481'
p1493
sg1450
S'Alitalia'
p1494
sg1452
I1387130400
sba(iflightmod
Flight
p1495
(dp1496
S'origin'
p1497
S'Zurich'
p1498
sS'arrival'
p1499
I1387129800
sS'aircraft'
p1500
S'RJ1H'
p1501
sS'flight'
p1502
S'LX1664'
p1503
sS'airline'
p1504
S'Swiss'
p1505
sS'departure'
p1506
I1387125600
sba(iflightmod
Flight
p1507
(dp1508
g1497
S'Paris'
p1509
sg1499
I1387134300
sg1500
S'A320'
p1510
sg1502
S'U24295'
p1511
sg1504
S'EasyJet'
p1512
sg1506
I1387128300
sba(iflightmod
Flight
p1513
(dp1514
g1497
S'Berlin'
p1515
sg1499
I1387135200
sg1500
S'A319'
p1516
sg1502
S'U24659'
p1517
sg1504
S'EasyJet'
p1518
sg1506
I1387128900
sba(iflightmod
Flight
p1519
(dp1520
g1497
S'Paris'
p1521
sg1499
I1387135800
sg1500
S'A319'
p1522
sg1502
S'U23795'
p1523
sg1504
S'EasyJet'
p1524
sg1506
I1387129800
sba(iflightmod
Flight
p1525
(dp1526
g1497
S'Amsterdam'
p1527
sg1499
I1387136100
sg1500
S'B738'
p1528
sg1502
S'HV5495'
p1529
sg1504
S'Transavia'
p1530
sg1506
I1387129800
sba(iflightmod
Flight
p1531
(dp1532
g1497
S'Lisbon'
p1533
sg1499
I1387136100
sg1500
S'A319'
p1534
sg1502
S'U27681'
p1535
sg1504
S'EasyJet'
p1536
sg1506
I1387125600
sba(iflightmod
Flight
p1537
(dp1538
g1497
S'Rome'
p1539
sg1499
I1387139100
sg1500
S'A320'
p1540
sg1502
S'AZ1483'
p1541
sg1504
S'Alitalia'
p1542
sg1506
I1387135200
sba(iflightmod
Flight
p1543
(dp1544
g1497
S'Vienna'
p1545
sg1499
I1387140300
sg1500
S'DH4'
p1546
sg1502
S'OS527'
p1547
sg1504
S'Austrian Airlines'
p1548
sg1506
I1387136100
sba(iflightmod
Flight
p1549
(dp1550
g1497
S'Moscow'
p1551
sg1499
I1387141200
sg1500
S'A320'
p1552
sg1502
S'SU2422'
p1553
sg1504
S'Aeroflot'
p1554
sg1506
I1387128300
sba(iflightmod
Flight
p1555
(dp1556
g1497
S'Paris'
p1557
sg1499
I1387141800
sg1500
S'A320'
p1558
sg1502
S'AF1326'
p1559
sg1504
S'Air France'
p1560
sg1506
I1387135800
sba(iflightmod
Flight
p1561
(dp1562
S'origin'
p1563
S'Rome'
p1564
sS'arrival'
p1565
I1387130700
sS'aircraft'
p1566
S'A319'
p1567
sS'flight'
p1568
S'AZ1467'
p1569
sS'airline'
p1570
S'Alitalia'
p1571
sS'departure'
p1572
I1387126800
sba(iflightmod
Flight
p1573
(dp1574
g1563
S'Amsterdam'
p1575
sg1565
I1387142400
sg1566
S'B737'
p1576
sg1568
S'KL1659'
p1577
sg1570
S'KLM'
p1578
sg1572
I1387136100
sba(iflightmod
Flight
p1579
(dp1580
g1563
S'Rome'
p1581
sg1565
I1387142700
sg1566
S'32S'
p1582
sg1568
S'AZ1473'
p1583
sg1570
S'Alitalia'
p1584
sg1572
I1387138800
sba(iflightmod
Flight
p1585
(dp1586
g1563
S'Munich'
p1587
sg1565
I1387142700
sg1566
S'E95'
p1588
sg1568
S'EN8206'
p1589
sg1570
S'Air Dolomiti'
p1590
sg1572
I1387139100
sba(iflightmod
Flight
p1591
(dp1592
g1563
S'Brussels'
p1593
sg1565
I1387143300
sg1566
S'AR1'
p1594
sg1568
S'SN3207'
p1595
sg1570
S'Brussels Airlines'
p1596
sg1572
I1387137000
sba(iflightmod
Flight
p1597
(dp1598
g1563
S'Frankfurt'
p1599
sg1565
I1387145700
sg1566
S'32A'
p1600
sg1568
S'LH332'
p1601
sg1570
S'Lufthansa'
p1602
sg1572
I1387140900
sba(iflightmod
Flight
p1603
(dp1604
g1563
S'Catania'
p1605
sg1565
I1387146300
sg1566
S'A320'
p1606
sg1568
S'AP872'
p1607
sg1570
S'Air One'
p1608
sg1572
I1387140300
sba(iflightmod
Flight
p1609
(dp1610
S'origin'
p1611
S'Catania'
p1612
sS'arrival'
p1613
I1387146900
sS'aircraft'
p1614
S'B717'
p1615
sS'flight'
p1616
S'V71265'
p1617
sS'airline'
p1618
S'Volotea'
p1619
sS'departure'
p1620
I1387140600
sba(iflightmod
Flight
p1621
(dp1622
g1611
S'Tirana'
p1623
sg1613
I1387175100
sg1614
S'A319'
p1624
sg1616
S'LZ675'
p1625
sg1618
S'Belle Air'
p1626
sg1620
I1387170000
sba(iflightmod
Flight
p1627
(dp1628
g1611
S'Pristina'
p1629
sg1613
I1387176000
sg1614
S'A319'
p1630
sg1616
S'L9526'
p1631
sg1618
S'Belle Air Europe'
p1632
sg1620
I1387170000
sba(iflightmod
Flight
p1633
(dp1634
g1611
S'Chisinau'
p1635
sg1613
I1387177200
sg1614
S'B733'
p1636
sg1616
S'V3260'
p1637
sg1618
S'Carpatair'
p1638
sg1620
I1387169100
sba(iflightmod
Flight
p1639
(dp1640
g1611
S'Munich'
p1641
sg1613
I1387177500
sg1614
S'E95'
p1642
sg1616
S'EN8200'
p1643
sg1618
S'Air Dolomiti'
p1644
sg1620
I1387173900
sba(iflightmod
Flight
p1645
(dp1646
g1611
S'Zurich'
p1647
sg1613
I1387179600
sg1614
S'AR1'
p1648
sg1616
S'LX1660'
p1649
sg1618
S'Swiss'
p1650
sg1620
I1387175400
sba(iflightmod
Flight
p1651
(dp1652
S'origin'
p1653
S'Brussels'
p1654
sS'arrival'
p1655
I1387143300
sS'aircraft'
p1656
S'RJ1H'
p1657
sS'flight'
p1658
S'SN3207'
p1659
sS'airline'
p1660
S'Brussels Airlines'
p1661
sS'departure'
p1662
I1387137000
sba(iflightmod
Flight
p1663
(dp1664
g1653
S'Paris'
p1665
sg1655
I1387180800
sg1656
S'A319'
p1666
sg1658
S'AF1126'
p1667
sg1660
S'Air France'
p1668
sg1662
I1387174800
sba(iflightmod
Flight
p1669
(dp1670
g1653
S'Paris'
p1671
sg1655
I1387180800
sg1656
S'A320'
p1672
sg1658
S'U24291'
p1673
sg1660
S'EasyJet'
p1674
sg1662
I1387174800
sba(iflightmod
Flight
p1675
(dp1676
g1653
S'Rome'
p1677
sg1655
I1387182300
sg1656
S'E75'
p1678
sg1658
S'AZ1471'
p1679
sg1660
S'Alitalia'
p1680
sg1662
I1387178400
sba(iflightmod
Flight
p1681
(dp1682
g1653
S'Istanbul'
p1683
sg1655
I1387182300
sg1656
S'A320'
p1684
sg1658
S'TK1867'
p1685
sg1660
S'Turkish Airlines'
p1686
sg1662
I1387173300
sba(iflightmod
Flight
p1687
(dp1688
g1653
S'Naples'
p1689
sg1655
I1387184100
sg1656
S'A319'
p1690
sg1658
S'U2991'
p1691
sg1660
S'EasyJet'
p1692
sg1662
I1387179600
sba(iflightmod
Flight
p1693
(dp1694
g1653
S'Frankfurt'
p1695
sg1655
I1387185300
sg1656
S'A320'
p1696
sg1658
S'LH324'
p1697
sg1660
S'Lufthansa'
p1698
sg1662
I1387180500
sba(iflightmod
Flight
p1699
(dp1700
g1653
S'Lyon'
p1701
sg1655
I1387185300
sg1656
S'CR7'
p1702
sg1658
S'A54522'
p1703
sg1660
S'HOP!'
p1704
sg1662
I1387180500
sba(iflightmod
Flight
p1705
(dp1706
g1653
S'Vienna'
p1707
sg1655
I1387185600
sg1656
S'DH4'
p1708
sg1658
S'OS521'
p1709
sg1660
S'Austrian Airlines'
p1710
sg1662
I1387181400
sba(iflightmod
Flight
p1711
(dp1712
g1653
S'Catania'
p1713
sg1655
I1387186500
sg1656
S'A320'
p1714
sg1658
S'AP870'
p1715
sg1660
S'Air One'
p1716
sg1662
I1387180500
sba(iflightmod
Flight
p1717
(dp1718
S'origin'
p1719
S'Rome'
p1720
sS'arrival'
p1721
I1387142700
sS'aircraft'
p1722
S'A320'
p1723
sS'flight'
p1724
S'AZ1473'
p1725
sS'airline'
p1726
S'Alitalia'
p1727
sS'departure'
p1728
I1387138800
sba(iflightmod
Flight
p1729
(dp1730
g1719
S'Munich'
p1731
sg1721
I1387142700
sg1722
S'E190'
p1732
sg1724
S'EN8206'
p1733
sg1726
S'Air Dolomiti'
p1734
sg1728
I1387139100
sba(iflightmod
Flight
p1735
(dp1736
g1719
S'Rome'
p1737
sg1721
I1387188900
sg1722
S'A320'
p1738
sg1724
S'AZ1463'
p1739
sg1726
S'Alitalia'
p1740
sg1728
I1387185000
sba(iflightmod
Flight
p1741
(dp1742
S'origin'
p1743
S'Frankfurt'
p1744
sS'arrival'
p1745
I1387145700
sS'aircraft'
p1746
S'A320'
p1747
sS'flight'
p1748
S'LH332'
p1749
sS'airline'
p1750
S'Lufthansa'
p1751
sS'departure'
p1752
I1387140900
sba(iflightmod
Flight
p1753
(dp1754
g1743
S'Madrid'
p1755
sg1745
I1387189200
sg1746
S'A319'
p1756
sg1748
S'IB3242'
p1757
sg1750
S'Iberia'
p1758
sg1752
I1387180200
sba(iflightmod
Flight
p1759
(dp1760
g1743
S'Marseille'
p1761
sg1745
I1387189500
sg1746
S'A319'
p1762
sg1748
S'AF4332'
p1763
sg1750
S'Air France'
p1764
sg1752
I1387185000
sba(iflightmod
Flight
p1765
(dp1766
g1743
S'London'
p1767
sg1745
I1387189800
sg1746
S'B734'
p1768
sg1748
S'BA2582'
p1769
sg1750
S'British Airways'
p1770
sg1752
I1387182300
sba(iflightmod
Flight
p1771
(dp1772
g1743
S'Berlin'
p1773
sg1745
I1387190400
sg1746
S'A319'
p1774
sg1748
S'U24651'
p1775
sg1750
S'EasyJet'
p1776
sg1752
I1387184100
sba(iflightmod
Flight
p1777
(dp1778
g1743
S'Amsterdam'
p1779
sg1745
I1387190700
sg1746
S'B737'
p1780
sg1748
S'KL1653'
p1781
sg1750
S'KLM'
p1782
sg1752
I1387184100
sba(iflightmod
Flight
p1783
(dp1784
g1743
S'Brussels'
p1785
sg1745
I1387190700
sg1746
S'AR1'
p1786
sg1748
S'SN3201'
p1787
sg1750
S'Brussels Airlines'
p1788
sg1752
I1387184700
sba(iflightmod
Flight
p1789
(dp1790
g1743
S'London'
p1791
sg1745
I1387190700
sg1746
S'A319'
p1792
sg1748
S'U25263'
p1793
sg1750
S'EasyJet'
p1794
sg1752
I1387183200
sba(iflightmod
Flight
p1795
(dp1796
S'origin'
p1797
S'Frankfurt'
p1798
sS'arrival'
p1799
I1387191000
sS'aircraft'
p1800
S'A319'
p1801
sS'flight'
p1802
S'LH326'
p1803
sS'airline'
p1804
S'Lufthansa'
p1805
sS'departure'
p1806
I1387186200
sba(iflightmod
Flight
p1807
(dp1808
g1797
S'London'
p1809
sg1799
I1387191000
sg1800
S'A319'
p1810
sg1802
S'BA578'
p1811
sg1804
S'British Airways'
p1812
sg1806
I1387183500
sba(iflightmod
Flight
p1813
(dp1814
g1797
S'Moscow'
p1815
sg1799
I1387191000
sg1800
S'A320'
p1816
sg1802
S'SU2596'
p1817
sg1804
S'Aeroflot'
p1818
sg1806
I1387178700
sba(iflightmod
Flight
p1819
(dp1820
S'origin'
p1821
S'Munich'
p1822
sS'arrival'
p1823
I1387177500
sS'aircraft'
p1824
S'E190'
p1825
sS'flight'
p1826
S'EN8200'
p1827
sS'airline'
p1828
S'Air Dolomiti'
p1829
sS'departure'
p1830
I1387173900
sba(iflightmod
Flight
p1831
(dp1832
g1821
S'Zurich'
p1833
sg1823
I1387179600
sg1824
S'RJ1H'
p1834
sg1826
S'LX1660'
p1835
sg1828
S'Swiss'
p1836
sg1830
I1387175400
sba(iflightmod
Flight
p1837
(dp1838
g1821
S'Paris'
p1839
sg1823
I1387180800
sg1824
S'A318'
p1840
sg1826
S'AF1126'
p1841
sg1828
S'Air France'
p1842
sg1830
I1387174800
sba(iflightmod
Flight
p1843
(dp1844
g1821
S'Paris'
p1845
sg1823
I1387191600
sg1824
S'A318'
p1846
sg1826
S'AF1426'
p1847
sg1828
S'Air France'
p1848
sg1830
I1387185600
sba(iflightmod
Flight
p1849
(dp1850
g1821
S'Barcelona'
p1851
sg1823
I1387192800
sg1824
S'A320'
p1852
sg1826
S'VY6400'
p1853
sg1828
S'Vueling'
p1854
sg1830
I1387186500
sba(iflightmod
Flight
p1855
(dp1856
S'origin'
p1857
S'Rome'
p1858
sS'arrival'
p1859
I1387182300
sS'aircraft'
p1860
S'E170'
p1861
sS'flight'
p1862
S'AZ1471'
p1863
sS'airline'
p1864
S'Alitalia'
p1865
sS'departure'
p1866
I1387178400
sba(iflightmod
Flight
p1867
(dp1868
g1857
S'Munich'
p1869
sg1859
I1387193400
sg1860
S'E95'
p1870
sg1862
S'EN8202'
p1871
sg1864
S'Air Dolomiti'
p1872
sg1866
I1387189800
sba(iflightmod
Flight
p1873
(dp1874
g1857
S'Istanbul'
p1875
sg1859
I1387196400
sg1860
S'B738'
p1876
sg1862
S'TK1871'
p1877
sg1864
S'Turkish Airlines'
p1878
sg1866
I1387187400
sba(iflightmod
Flight
p1879
(dp1880
g1857
S'Rome'
p1881
sg1859
I1387197300
sg1860
S'A319'
p1882
sg1862
S'AZ1465'
p1883
sg1864
S'Alitalia'
p1884
sg1866
I1387193400
sba(iflightmod
Flight
p1885
(dp1886
S'origin'
p1887
S'Lyon'
p1888
sS'arrival'
p1889
I1387185300
sS'aircraft'
p1890
S'CRJ7'
p1891
sS'flight'
p1892
S'A54522'
p1893
sS'airline'
p1894
S'HOP!'
p1895
sS'departure'
p1896
I1387180500
sba(iflightmod
Flight
p1897
(dp1898
g1887
S'Frankfurt'
p1899
sg1889
I1387197300
sg1890
S'A319'
p1900
sg1892
S'LH328'
p1901
sg1894
S'Lufthansa'
p1902
sg1896
I1387192500
sba(iflightmod
Flight
p1903
(dp1904
g1887
S'Doha'
p1905
sg1889
I1387197600
sg1890
S'A320'
p1906
sg1892
S'QR129'
p1907
sg1894
S'Qatar Airways'
p1908
sg1896
I1387173900
sba(iflightmod
Flight
p1909
(dp1910
g1887
S'Dubai'
p1911
sg1889
I1387197900
sg1890
S'B77W'
p1912
sg1892
S'EK135'
p1913
sg1894
S'Emirates'
p1914
sg1896
I1387173900
sba(iflightmod
Flight
p1915
(dp1916
g1887
S'Zurich'
p1917
sg1889
I1387198800
sg1890
S'A319'
p1918
sg1892
S'LX1662'
p1919
sg1894
S'Swiss'
p1920
sg1896
I1387194900
sba(iflightmod
Flight
p1921
(dp1922
S'origin'
p1923
S'London'
p1924
sS'arrival'
p1925
I1387189800
sS'aircraft'
p1926
S'A319'
p1927
sS'flight'
p1928
S'BA2582'
p1929
sS'airline'
p1930
S'British Airways'
p1931
sS'departure'
p1932
I1387182300
sba(iflightmod
Flight
p1933
(dp1934
g1923
S'Paris'
p1935
sg1925
I1387199100
sg1926
S'A319'
p1936
sg1928
S'U23793'
p1937
sg1930
S'EasyJet'
p1938
sg1932
I1387193100
sba(iflightmod
Flight
p1939
(dp1940
g1923
S'London'
p1941
sg1925
I1387200000
sg1926
S'E170'
p1942
sg1928
S'BA8479'
p1943
sg1930
S'British Airways'
p1944
sg1932
I1387192500
sba(iflightmod
Flight
p1945
(dp1946
g1923
S'Prague'
p1947
sg1925
I1387200900
sg1926
S'A320'
p1948
sg1928
S'AP753'
p1949
sg1930
S'Air One'
p1950
sg1932
I1387195800
sba(iflightmod
Flight
p1951
(dp1952
g1923
S'Paris'
p1953
sg1925
I1387201200
sg1926
S'A319'
p1954
sg1928
S'AF1726'
p1955
sg1930
S'Air France'
p1956
sg1932
I1387195200
sba(iflightmod
Flight
p1957
(dp1958
g1923
S'Naples'
p1959
sg1925
I1387203000
sg1926
S'A319'
p1960
sg1928
S'U2995'
p1961
sg1930
S'EasyJet'
p1962
sg1932
I1387198500
sba(iflightmod
Flight
p1963
(dp1964
S'origin'
p1965
S'Munich'
p1966
sS'arrival'
p1967
I1387193400
sS'aircraft'
p1968
S'E190'
p1969
sS'flight'
p1970
S'EN8202'
p1971
sS'airline'
p1972
S'Air Dolomiti'
p1973
sS'departure'
p1974
I1387189800
sba(iflightmod
Flight
p1975
(dp1976
g1965
S'Palermo'
p1977
sg1967
I1387203600
sg1968
S'B717'
p1978
sg1970
S'V71219'
p1979
sg1972
S'Volotea'
p1980
sg1974
I1387197900
sba(iflightmod
Flight
p1981
(dp1982
g1965
S'London'
p1983
sg1967
I1387203900
sg1968
S'B734'
p1984
sg1970
S'BA2584'
p1985
sg1972
S'British Airways'
p1986
sg1974
I1387196700
sba(iflightmod
Flight
p1987
(dp1988
g1965
S'Southend'
p1989
sg1967
I1387204500
sg1968
S'A319'
p1990
sg1970
S'U27397'
p1991
sg1972
S'EasyJet'
p1992
sg1974
I1387197300
sba(iflightmod
Flight
p1993
(dp1994
g1965
S'Rome'
p1995
sg1967
I1387204800
sg1968
S'A320'
p1996
sg1970
S'AZ1475'
p1997
sg1972
S'Alitalia'
p1998
sg1974
I1387200900
sba(iflightmod
Flight
p1999
(dp2000
g1965
S'Casablanca'
p2001
sg1967
I1387206300
sg1968
S'A320'
p2002
sg1970
S'3O2475'
p2003
sg1972
S'Air Arabia Maroc'
p2004
sg1974
I1387191600
sba(iflightmod
Flight
p2005
(dp2006
S'origin'
p2007
S'Tirana'
p2008
sS'arrival'
p2009
I1387207500
sS'aircraft'
p2010
S'A320'
p2011
sS'flight'
p2012
S'AP751'
p2013
sS'airline'
p2014
S'Air One'
p2015
sS'departure'
p2016
I1387201500
sba(iflightmod
Flight
p2017
(dp2018
g2007
S'Lisbon'
p2019
sg2009
I1387207800
sg2010
S'A320'
p2020
sg2012
S'TP876'
p2021
sg2014
S'TAP Portugal'
p2022
sg2016
I1387197000
sba(iflightmod
Flight
p2023
(dp2024
g2007
S'Munich'
p2025
sg2009
I1387208100
sg2010
S'E95'
p2026
sg2012
S'EN8204'
p2027
sg2014
S'Air Dolomiti'
p2028
sg2016
I1387204500
sba(iflightmod
Flight
p2029
(dp2030
g2007
S'Cologne'
p2031
sg2009
I1387208700
sg2010
S'A319'
p2032
sg2012
S'4U814'
p2033
sg2014
S'Germanwings'
p2034
sg2016
I1387203300
sba(iflightmod
Flight
p2035
(dp2036
g2007
S'Lyon'
p2037
sg2009
I1387209000
sg2010
S'E145'
p2038
sg2012
S'A54526'
p2039
sg2014
S'HOP!'
p2040
sg2016
I1387204200
sba(iflightmod
Flight
p2041
(dp2042
g2007
S'Amsterdam'
p2043
sg2009
I1387209300
sg2010
S'B737'
p2044
sg2012
S'KL1655'
p2045
sg2014
S'KLM'
p2046
sg2016
I1387203000
sba(iflightmod
Flight
p2047
(dp2048
g2007
S'London'
p2049
sg2009
I1387211400
sg2010
S'A319'
p2050
sg2012
S'U25267'
p2051
sg2014
S'EasyJet'
p2052
sg2016
I1387203900
sba(iflightmod
Flight
p2053
(dp2054
g2007
S'Paris'
p2055
sg2009
I1387211700
sg2010
S'A318'
p2056
sg2012
S'AF1226'
p2057
sg2014
S'Air France'
p2058
sg2016
I1387205700
sba(iflightmod
Flight
p2059
(dp2060
g2007
S'Istanbul'
p2061
sg2009
I1387213200
sg2010
S'A320'
p2062
sg2012
S'TK1869'
p2063
sg2014
S'Turkish Airlines'
p2064
sg2016
I1387203900
sba(iflightmod
Flight
p2065
(dp2066
S'origin'
p2067
S'Frankfurt'
p2068
sS'arrival'
p2069
I1387213800
sS'aircraft'
p2070
S'A320'
p2071
sS'flight'
p2072
S'LH330'
p2073
sS'airline'
p2074
S'Lufthansa'
p2075
sS'departure'
p2076
I1387209000
sba(iflightmod
Flight
p2077
(dp2078
g2067
S'Madrid'
p2079
sg2069
I1387214100
sg2070
S'A319'
p2080
sg2072
S'IB3244'
p2081
sg2074
S'Iberia'
p2082
sg2076
I1387205400
sba(iflightmod
Flight
p2083
(dp2084
g2067
S'Vienna'
p2085
sg2069
I1387215000
sg2070
S'DH4'
p2086
sg2072
S'OS529'
p2087
sg2074
S'Austrian Airlines'
p2088
sg2076
I1387210800
sba(iflightmod
Flight
p2089
(dp2090
g2067
S'London'
p2091
sg2069
I1387216200
sg2070
S'B734'
p2092
sg2072
S'BA2586'
p2093
sg2074
S'British Airways'
p2094
sg2076
I1387209300
sba(iflightmod
Flight
p2095
(dp2096
S'origin'
p2097
S'Naples'
p2098
sS'arrival'
p2099
I1387216200
sS'aircraft'
p2100
S'A319'
p2101
sS'flight'
p2102
S'U2997'
p2103
sS'airline'
p2104
S'EasyJet'
p2105
sS'departure'
p2106
I1387211700
sba(iflightmod
Flight
p2107
(dp2108
g2097
S'Zurich'
p2109
sg2099
I1387216200
sg2100
S'AR1'
p2110
sg2102
S'LX1664'
p2111
sg2104
S'Swiss'
p2112
sg2106
I1387212000
sba(iflightmod
Flight
p2113
(dp2114
g2097
S'Palermo'
p2115
sg2099
I1387216500
sg2100
S'A320'
p2116
sg2102
S'AP735'
p2117
sg2104
S'Air One'
p2118
sg2106
I1387211100
sba(iflightmod
Flight
p2119
(dp2120
g2097
S'Rome'
p2121
sg2099
I1387217100
sg2100
S'E75'
p2122
sg2102
S'AZ1467'
p2123
sg2104
S'Alitalia'
p2124
sg2106
I1387213200
sba(iflightmod
Flight
p2125
(dp2126
g2097
S'Nice'
p2127
sg2099
I1387217400
sg2100
S'A319'
p2128
sg2102
S'U21651'
p2129
sg2104
S'EasyJet'
p2130
sg2106
I1387212600
sba(iflightmod
Flight
p2131
(dp2132
g2097
S'Paris'
p2133
sg2099
I1387218000
sg2100
S'A320'
p2134
sg2102
S'U24295'
p2135
sg2104
S'EasyJet'
p2136
sg2106
I1387212000
sba(iflightmod
Flight
p2137
(dp2138
S'origin'
p2139
S'Tirana'
p2140
sS'arrival'
p2141
I1387218600
sS'aircraft'
p2142
S'B737'
p2143
sS'flight'
p2144
S'BV3225'
p2145
sS'airline'
p2146
S'Blue Panorama Airlines'
p2147
sS'departure'
p2148
I1387213200
sba(iflightmod
Flight
p2149
(dp2150
g2139
S'Barcelona'
p2151
sg2141
I1387219500
sg2142
S'A320'
p2152
sg2144
S'VY6402'
p2153
sg2146
S'Vueling'
p2154
sg2148
I1387213200
sba(iflightmod
Flight
p2155
(dp2156
g2139
S'Rome'
p2157
sg2141
I1387220700
sg2142
S'32S'
p2158
sg2144
S'AZ1481'
p2159
sg2146
S'Alitalia'
p2160
sg2148
I1387216800
sba(iflightmod
Flight
p2161
(dp2162
g2139
S'Paris'
p2163
sg2141
I1387222200
sg2142
S'A319'
p2164
sg2144
S'U23795'
p2165
sg2146
S'EasyJet'
p2166
sg2148
I1387216200
sba(iflightmod
Flight
p2167
(dp2168
g2139
S'Rome'
p2169
sg2141
I1387225500
sg2142
S'A320'
p2170
sg2144
S'AZ1483'
p2171
sg2146
S'Alitalia'
p2172
sg2148
I1387221600
sba(iflightmod
Flight
p2173
(dp2174
S'origin'
p2175
S'Vienna'
p2176
sS'arrival'
p2177
I1387226700
sS'aircraft'
p2178
S'DH4'
p2179
sS'flight'
p2180
S'OS527'
p2181
sS'airline'
p2182
S'Austrian Airlines'
p2183
sS'departure'
p2184
I1387222500
sba(iflightmod
Flight
p2185
(dp2186
g2175
S'Moscow'
p2187
sg2177
I1387227600
sg2178
S'A320'
p2188
sg2180
S'SU2422'
p2189
sg2182
S'Aeroflot'
p2190
sg2184
I1387215300
sba(iflightmod
Flight
p2191
(dp2192
g2175
S'Paris'
p2193
sg2177
I1387228200
sg2178
S'A318'
p2194
sg2180
S'AF1326'
p2195
sg2182
S'Air France'
p2196
sg2184
I1387222200
sba(iflightmod
Flight
p2197
(dp2198
g2175
S'Amsterdam'
p2199
sg2177
I1387228800
sg2178
S'B737'
p2200
sg2180
S'KL1659'
p2201
sg2182
S'KLM'
p2202
sg2184
I1387222500
sba(iflightmod
Flight
p2203
(dp2204
S'origin'
p2205
S'Zurich'
p2206
sS'arrival'
p2207
I1387216200
sS'aircraft'
p2208
S'RJ1H'
p2209
sS'flight'
p2210
S'LX1664'
p2211
sS'airline'
p2212
S'Swiss'
p2213
sS'departure'
p2214
I1387212000
sba(iflightmod
Flight
p2215
(dp2216
g2205
S'Rome'
p2217
sg2207
I1387229100
sg2208
S'32S'
p2218
sg2210
S'AZ1473'
p2219
sg2212
S'Alitalia'
p2220
sg2214
I1387225200
sba(iflightmod
Flight
p2221
(dp2222
g2205
S'Munich'
p2223
sg2207
I1387229100
sg2208
S'E95'
p2224
sg2210
S'EN8206'
p2225
sg2212
S'Air Dolomiti'
p2226
sg2214
I1387225500
sba(iflightmod
Flight
p2227
(dp2228
g2205
S'Brussels'
p2229
sg2207
I1387229700
sg2208
S'AR1'
p2230
sg2210
S'SN3207'
p2231
sg2212
S'Brussels Airlines'
p2232
sg2214
I1387223400
sba(iflightmod
Flight
p2233
(dp2234
g2205
S'Bari'
p2235
sg2207
I1387230000
sg2208
S'B717'
p2236
sg2210
S'V71235'
p2237
sg2212
S'Volotea'
p2238
sg2214
I1387225200
sba(iflightmod
Flight
p2239
(dp2240
g2205
S'Frankfurt'
p2241
sg2207
I1387231800
sg2208
S'A320'
p2242
sg2210
S'LH332'
p2243
sg2212
S'Lufthansa'
p2244
sg2214
I1387227000
sba(iflightmod
Flight
p2245
(dp2246
S'origin'
p2247
S'Rome'
p2248
sS'arrival'
p2249
I1387217100
sS'aircraft'
p2250
S'A319'
p2251
sS'flight'
p2252
S'AZ1467'
p2253
sS'airline'
p2254
S'Alitalia'
p2255
sS'departure'
p2256
I1387213200
sba(iflightmod
Flight
p2257
(dp2258
g2247
S'Tirana'
p2259
sg2249
I1387218600
sg2250
S'B734'
p2260
sg2252
S'BV3225'
p2261
sg2254
S'Blue Panorama Airlines'
p2262
sg2256
I1387213200
sba(iflightmod
Flight
p2263
(dp2264
g2247
S'Catania'
p2265
sg2249
I1387232700
sg2250
S'A320'
p2266
sg2252
S'AP872'
p2267
sg2254
S'Air One'
p2268
sg2256
I1387226700
sba(iflightmod
Flight
p2269
(dp2270
g2247
S'Munich'
p2271
sg2249
I1387263900
sg2250
S'E95'
p2272
sg2252
S'EN8200'
p2273
sg2254
S'Air Dolomiti'
p2274
sg2256
I1387260300
sba(iflightmod
Flight
p2275
(dp2276
g2247
S'Zurich'
p2277
sg2249
I1387266000
sg2250
S'AR1'
p2278
sg2252
S'LX1660'
p2279
sg2254
S'Swiss'
p2280
sg2256
I1387261800
sba(iflightmod
Flight
p2281
(dp2282
g2247
S'Paris'
p2283
sg2249
I1387267200
sg2250
S'A318'
p2284
sg2252
S'AF1126'
p2285
sg2254
S'Air France'
p2286
sg2256
I1387261200
sba(iflightmod
Flight
p2287
(dp2288
S'origin'
p2289
S'Rome'
p2290
sS'arrival'
p2291
I1387220700
sS'aircraft'
p2292
S'A320'
p2293
sS'flight'
p2294
S'AZ1481'
p2295
sS'airline'
p2296
S'Alitalia'
p2297
sS'departure'
p2298
I1387216800
sba(iflightmod
Flight
p2299
(dp2300
g2289
S'Rome'
p2301
sg2291
I1387268700
sg2292
S'E75'
p2302
sg2294
S'AZ1471'
p2303
sg2296
S'Alitalia'
p2304
sg2298
I1387264800
sba(iflightmod
Flight
p2305
(dp2306
g2289
S'Istanbul'
p2307
sg2291
I1387268700
sg2292
S'A320'
p2308
sg2294
S'TK1867'
p2309
sg2296
S'Turkish Airlines'
p2310
sg2298
I1387259700
sba(iflightmod
Flight
p2311
(dp2312
g2289
S'Naples'
p2313
sg2291
I1387270500
sg2292
S'A319'
p2314
sg2294
S'U2991'
p2315
sg2296
S'EasyJet'
p2316
sg2298
I1387266000
sba(iflightmod
Flight
p2317
(dp2318
g2289
S'Lyon'
p2319
sg2291
I1387271700
sg2292
S'CR7'
p2320
sg2294
S'A54522'
p2321
sg2296
S'HOP!'
p2322
sg2298
I1387266900
sba(iflightmod
Flight
p2323
(dp2324
g2289
S'Vienna'
p2325
sg2291
I1387272000
sg2292
S'DH4'
p2326
sg2294
S'OS521'
p2327
sg2296
S'Austrian Airlines'
p2328
sg2298
I1387267800
sba(iflightmod
Flight
p2329
(dp2330
g2289
S'Frankfurt'
p2331
sg2291
I1387272300
sg2292
S'A320'
p2332
sg2294
S'LH324'
p2333
sg2296
S'Lufthansa'
p2334
sg2298
I1387267500
sba(iflightmod
Flight
p2335
(dp2336
g2289
S'Reggio Calabria'
p2337
sg2291
I1387273200
sg2292
S'B717'
p2338
sg2294
S'V71249'
p2339
sg2296
S'Volotea'
p2340
sg2298
I1387267500
sba(iflightmod
Flight
p2341
(dp2342
g2289
S'London'
p2343
sg2291
I1387273800
sg2292
S'B734'
p2344
sg2294
S'BA2582'
p2345
sg2296
S'British Airways'
p2346
sg2298
I1387266300
sba(iflightmod
Flight
p2347
(dp2348
S'origin'
p2349
S'Dublin'
p2350
sS'arrival'
p2351
I1387274400
sS'aircraft'
p2352
S'A320'
p2353
sS'flight'
p2354
S'EI422'
p2355
sS'airline'
p2356
S'Aer Lingus'
p2357
sS'departure'
p2358
I1387264800
sba(iflightmod
Flight
p2359
(dp2360
g2349
S'Catania'
p2361
sg2351
I1387275000
sg2352
S'A320'
p2362
sg2354
S'AP870'
p2363
sg2356
S'Air One'
p2364
sg2358
I1387269000
sba(iflightmod
Flight
p2365
(dp2366
g2349
S'Rome'
p2367
sg2351
I1387275300
sg2352
S'A320'
p2368
sg2354
S'AZ1463'
p2369
sg2356
S'Alitalia'
p2370
sg2358
I1387271400
sba(iflightmod
Flight
p2371
(dp2372
S'origin'
p2373
S'Rome'
p2374
sS'arrival'
p2375
I1387229100
sS'aircraft'
p2376
S'A320'
p2377
sS'flight'
p2378
S'AZ1473'
p2379
sS'airline'
p2380
S'Alitalia'
p2381
sS'departure'
p2382
I1387225200
sba(iflightmod
Flight
p2383
(dp2384
g2373
S'Munich'
p2385
sg2375
I1387229100
sg2376
S'E190'
p2386
sg2378
S'EN8206'
p2387
sg2380
S'Air Dolomiti'
p2388
sg2382
I1387225500
sba(iflightmod
Flight
p2389
(dp2390
g2373
S'Brussels'
p2391
sg2375
I1387229700
sg2376
S'RJ1H'
p2392
sg2378
S'SN3207'
p2393
sg2380
S'Brussels Airlines'
p2394
sg2382
I1387223400
sba(iflightmod
Flight
p2395
(dp2396
g2373
S'Bari'
p2397
sg2375
I1387230000
sg2376
S'B712'
p2398
sg2378
S'V71235'
p2399
sg2380
S'Volotea'
p2400
sg2382
I1387225200
sba(iflightmod
Flight
p2401
(dp2402
g2373
S'Madrid'
p2403
sg2375
I1387275600
sg2376
S'A319'
p2404
sg2378
S'IB3242'
p2405
sg2380
S'Iberia'
p2406
sg2382
I1387266600
sba(iflightmod
Flight
p2407
(dp2408
S'origin'
p2409
S'Berlin'
p2410
sS'arrival'
p2411
I1387276800
sS'aircraft'
p2412
S'A319'
p2413
sS'flight'
p2414
S'U24651'
p2415
sS'airline'
p2416
S'EasyJet'
p2417
sS'departure'
p2418
I1387270500
sba(iflightmod
Flight
p2419
(dp2420
g2409
S'Amsterdam'
p2421
sg2411
I1387277100
sg2412
S'E190'
p2422
sg2414
S'KL1653'
p2423
sg2416
S'KLM'
p2424
sg2418
I1387270500
sba(iflightmod
Flight
p2425
(dp2426
g2409
S'Brussels'
p2427
sg2411
I1387277100
sg2412
S'AR1'
p2428
sg2414
S'SN3201'
p2429
sg2416
S'Brussels Airlines'
p2430
sg2418
I1387271100
sba(iflightmod
Flight
p2431
(dp2432
g2409
S'Lisbon'
p2433
sg2411
I1387277100
sg2412
S'A321'
p2434
sg2414
S'TP874'
p2435
sg2416
S'TAP Portugal'
p2436
sg2418
I1387266600
sba(iflightmod
Flight
p2437
(dp2438
g2409
S'Frankfurt'
p2439
sg2411
I1387277400
sg2412
S'B735'
p2440
sg2414
S'LH326'
p2441
sg2416
S'Lufthansa'
p2442
sg2418
I1387272600
sba(iflightmod
Flight
p2443
(dp2444
g2409
S'London'
p2445
sg2411
I1387277400
sg2412
S'A319'
p2446
sg2414
S'BA578'
p2447
sg2416
S'British Airways'
p2448
sg2418
I1387269900
sba(iflightmod
Flight
p2449
(dp2450
g2409
S'Moscow'
p2451
sg2411
I1387277400
sg2412
S'A320'
p2452
sg2414
S'SU2596'
p2453
sg2416
S'Aeroflot'
p2454
sg2418
I1387265100
sba(iflightmod
Flight
p2455
(dp2456
g2409
S'Paris'
p2457
sg2411
I1387278000
sg2412
S'A318'
p2458
sg2414
S'AF1426'
p2459
sg2416
S'Air France'
p2460
sg2418
I1387272000
sba(iflightmod
Flight
p2461
(dp2462
S'origin'
p2463
S'Stuttgart'
p2464
sS'arrival'
p2465
I1387278600
sS'aircraft'
p2466
S'DH4'
p2467
sS'flight'
p2468
S'AB8984'
p2469
sS'airline'
p2470
S'Air Berlin'
p2471
sS'departure'
p2472
I1387274400
sba(iflightmod
Flight
p2473
(dp2474
g2463
S'Barcelona'
p2475
sg2465
I1387279200
sg2466
S'A320'
p2476
sg2468
S'VY6400'
p2477
sg2470
S'Vueling'
p2478
sg2472
I1387272900
sba(iflightmod
Flight
p2479
(dp2480
S'origin'
p2481
S'Munich'
p2482
sS'arrival'
p2483
I1387263900
sS'aircraft'
p2484
S'E190'
p2485
sS'flight'
p2486
S'EN8200'
p2487
sS'airline'
p2488
S'Air Dolomiti'
p2489
sS'departure'
p2490
I1387260300
sba(iflightmod
Flight
p2491
(dp2492
S'origin'
p2493
S'Rome'
p2494
sS'arrival'
p2495
I1387268700
sS'aircraft'
p2496
S'E170'
p2497
sS'flight'
p2498
S'AZ1471'
p2499
sS'airline'
p2500
S'Alitalia'
p2501
sS'departure'
p2502
I1387264800
sba(iflightmod
Flight
p2503
(dp2504
g2493
S'Munich'
p2505
sg2495
I1387279800
sg2496
S'E95'
p2506
sg2498
S'EN8202'
p2507
sg2500
S'Air Dolomiti'
p2508
sg2502
I1387276200
sba(iflightmod
Flight
p2509
(dp2510
g2493
S'Tel Aviv'
p2511
sg2495
I1387280400
sg2496
S'B738'
p2512
sg2498
S'LY289'
p2513
sg2500
S'El Al'
p2514
sg2502
I1387265400
sba(iflightmod
Flight
p2515
(dp2516
S'origin'
p2517
S'Lyon'
p2518
sS'arrival'
p2519
I1387271700
sS'aircraft'
p2520
S'CRJ7'
p2521
sS'flight'
p2522
S'A54522'
p2523
sS'airline'
p2524
S'HOP!'
p2525
sS'departure'
p2526
I1387266900
sba(iflightmod
Flight
p2527
(dp2528
g2517
S'Reggio Calabria'
p2529
sg2519
I1387273200
sg2520
S'B712'
p2530
sg2522
S'V71249'
p2531
sg2524
S'Volotea'
p2532
sg2526
I1387267500
sba(iflightmod
Flight
p2533
(dp2534
g2517
S'Istanbul'
p2535
sg2519
I1387282800
sg2520
S'B738'
p2536
sg2522
S'TK1871'
p2537
sg2524
S'Turkish Airlines'
p2538
sg2526
I1387273800
sba(iflightmod
Flight
p2539
(dp2540
g2517
S'Rome'
p2541
sg2519
I1387283700
sg2520
S'A319'
p2542
sg2522
S'AZ1465'
p2543
sg2524
S'Alitalia'
p2544
sg2526
I1387279800
sba(iflightmod
Flight
p2545
(dp2546
g2517
S'Frankfurt'
p2547
sg2519
I1387283700
sg2520
S'A319'
p2548
sg2522
S'LH328'
p2549
sg2524
S'Lufthansa'
p2550
sg2526
I1387278900
sba(iflightmod
Flight
p2551
(dp2552
S'origin'
p2553
S'Brussels'
p2554
sS'arrival'
p2555
I1387277100
sS'aircraft'
p2556
S'RJ1H'
p2557
sS'flight'
p2558
S'SN3201'
p2559
sS'airline'
p2560
S'Brussels Airlines'
p2561
sS'departure'
p2562
I1387271100
sba(iflightmod
Flight
p2563
(dp2564
g2553
S'Doha'
p2565
sg2555
I1387284000
sg2556
S'A320'
p2566
sg2558
S'QR129'
p2567
sg2560
S'Qatar Airways'
p2568
sg2562
I1387260300
sba(iflightmod
Flight
p2569
(dp2570
g2553
S'Dubai'
p2571
sg2555
I1387284300
sg2556
S'B77W'
p2572
sg2558
S'EK135'
p2573
sg2560
S'Emirates'
p2574
sg2562
I1387260300
sba(iflightmod
Flight
p2575
(dp2576
g2553
S'Zurich'
p2577
sg2555
I1387285200
sg2556
S'A319'
p2578
sg2558
S'LX1662'
p2579
sg2560
S'Swiss'
p2580
sg2562
I1387281300
sba(iflightmod
Flight
p2581
(dp2582
g2553
S'Paris'
p2583
sg2555
I1387285500
sg2556
S'A319'
p2584
sg2558
S'U23793'
p2585
sg2560
S'EasyJet'
p2586
sg2562
I1387279500
sba(iflightmod
Flight
p2587
(dp2588
g2553
S'Paris'
p2589
sg2555
I1387287600
sg2556
S'A319'
p2590
sg2558
S'AF1726'
p2591
sg2560
S'Air France'
p2592
sg2562
I1387281600
sba(iflightmod
Flight
p2593
(dp2594
S'origin'
p2595
S'Stuttgart'
p2596
sS'arrival'
p2597
I1387278600
sS'aircraft'
p2598
S'DH8D'
p2599
sS'flight'
p2600
S'AB8984'
p2601
sS'airline'
p2602
S'Air Berlin'
p2603
sS'departure'
p2604
I1387274400
sba(iflightmod
Flight
p2605
(dp2606
g2595
S'Munich'
p2607
sg2597
I1387279800
sg2598
S'E190'
p2608
sg2600
S'EN8202'
p2609
sg2602
S'Air Dolomiti'
p2610
sg2604
I1387276200
sba(iflightmod
Flight
p2611
(dp2612
g2595
S'London'
p2613
sg2597
I1387290300
sg2598
S'A319'
p2614
sg2600
S'BA2584'
p2615
sg2602
S'British Airways'
p2616
sg2604
I1387283100
sba(iflightmod
Flight
p2617
(dp2618
g2595
S'Rome'
p2619
sg2597
I1387291200
sg2598
S'A320'
p2620
sg2600
S'AZ1475'
p2621
sg2602
S'Alitalia'
p2622
sg2604
I1387287300
sba(iflightmod
Flight
p2623
(dp2624
g2595
S'Casablanca'
p2625
sg2597
I1387292700
sg2598
S'A320'
p2626
sg2600
S'3O2475'
p2627
sg2602
S'Air Arabia Maroc'
p2628
sg2604
I1387278000
sba(iflightmod
Flight
p2629
(dp2630
g2595
S'Manchester'
p2631
sg2597
I1387293600
sg2598
S'A319'
p2632
sg2600
S'U21863'
p2633
sg2602
S'EasyJet'
p2634
sg2604
I1387284600
sba(iflightmod
Flight
p2635
(dp2636
g2595
S'Munich'
p2637
sg2597
I1387294500
sg2598
S'E95'
p2638
sg2600
S'EN8204'
p2639
sg2602
S'Air Dolomiti'
p2640
sg2604
I1387290900
sba(iflightmod
Flight
p2641
(dp2642
g2595
S'Lyon'
p2643
sg2597
I1387295400
sg2598
S'E145'
p2644
sg2600
S'A54526'
p2645
sg2602
S'HOP!'
p2646
sg2604
I1387290600
sba(iflightmod
Flight
p2647
(dp2648
S'origin'
p2649
S'Amsterdam'
p2650
sS'arrival'
p2651
I1387295700
sS'aircraft'
p2652
S'B738'
p2653
sS'flight'
p2654
S'KL1655'
p2655
sS'airline'
p2656
S'KLM'
p2657
sS'departure'
p2658
I1387289400
sba(iflightmod
Flight
p2659
(dp2660
g2649
S'London'
p2661
sg2651
I1387297800
sg2652
S'A319'
p2662
sg2654
S'U25267'
p2663
sg2656
S'EasyJet'
p2664
sg2658
I1387290300
sba(iflightmod
Flight
p2665
(dp2666
g2649
S'Tirana'
p2667
sg2651
I1387297800
sg2652
S'A319'
p2668
sg2654
S'LZ673'
p2669
sg2656
S'Belle Air'
p2670
sg2658
I1387292400
sba(iflightmod
Flight
p2671
(dp2672
g2649
S'Paris'
p2673
sg2651
I1387298100
sg2652
S'A318'
p2674
sg2654
S'AF1226'
p2675
sg2656
S'Air France'
p2676
sg2658
I1387292100
sba(iflightmod
Flight
p2677
(dp2678
g2649
S'Istanbul'
p2679
sg2651
I1387299600
sg2652
S'A320'
p2680
sg2654
S'TK1869'
p2681
sg2656
S'Turkish Airlines'
p2682
sg2658
I1387290300
sba(iflightmod
Flight
p2683
(dp2684
g2649
S'Frankfurt'
p2685
sg2651
I1387300200
sg2652
S'32A'
p2686
sg2654
S'LH330'
p2687
sg2656
S'Lufthansa'
p2688
sg2658
I1387295400
sba(iflightmod
Flight
p2689
(dp2690
g2649
S'Vienna'
p2691
sg2651
I1387301400
sg2652
S'DH4'
p2692
sg2654
S'OS529'
p2693
sg2656
S'Austrian Airlines'
p2694
sg2658
I1387297200
sba(iflightmod
Flight
p2695
(dp2696
g2649
S'London'
p2697
sg2651
I1387302600
sg2652
S'B734'
p2698
sg2654
S'BA2586'
p2699
sg2656
S'British Airways'
p2700
sg2658
I1387295700
sba(iflightmod
Flight
p2701
(dp2702
g2649
S'Naples'
p2703
sg2651
I1387302600
sg2652
S'A319'
p2704
sg2654
S'U2997'
p2705
sg2656
S'EasyJet'
p2706
sg2658
I1387298100
sba(iflightmod
Flight
p2707
(dp2708
g2649
S'Zurich'
p2709
sg2651
I1387302600
sg2652
S'AR1'
p2710
sg2654
S'LX1664'
p2711
sg2656
S'Swiss'
p2712
sg2658
I1387298400
sba(iflightmod
Flight
p2713
(dp2714
g2649
S'Lamezia Terme'
p2715
sg2651
I1387302900
sg2652
S'A320'
p2716
sg2654
S'AP729'
p2717
sg2656
S'Air One'
p2718
sg2658
I1387297500
sba(iflightmod
Flight
p2719
(dp2720
S'origin'
p2721
S'Rome'
p2722
sS'arrival'
p2723
I1387303500
sS'aircraft'
p2724
S'E75'
p2725
sS'flight'
p2726
S'AZ1467'
p2727
sS'airline'
p2728
S'Alitalia'
p2729
sS'departure'
p2730
I1387299600
sba(iflightmod
Flight
p2731
(dp2732
g2721
S'Madrid'
p2733
sg2723
I1387304100
sg2724
S'A319'
p2734
sg2726
S'IB3246'
p2735
sg2728
S'Iberia'
p2736
sg2730
I1387295400
sba(iflightmod
Flight
p2737
(dp2738
g2721
S'Paris'
p2739
sg2723
I1387304400
sg2724
S'A320'
p2740
sg2726
S'U24295'
p2741
sg2728
S'EasyJet'
p2742
sg2730
I1387298400
sba(iflightmod
Flight
p2743
(dp2744
g2721
S'Tirana'
p2745
sg2723
I1387305000
sg2724
S'B737'
p2746
sg2726
S'BV3225'
p2747
sg2728
S'Blue Panorama Airlines'
p2748
sg2730
I1387299600
sba(iflightmod
Flight
p2749
(dp2750
S'origin'
p2751
S'Rome'
p2752
sS'arrival'
p2753
I1387307100
sS'aircraft'
p2754
S'32S'
p2755
sS'flight'
p2756
S'AZ1481'
p2757
sS'airline'
p2758
S'Alitalia'
p2759
sS'departure'
p2760
I1387303200
sba(iflightmod
Flight
p2761
(dp2762
g2751
S'Mulhouse'
p2763
sg2753
I1387308900
sg2754
S'A319'
p2764
sg2756
S'U21163'
p2765
sg2758
S'EasyJet'
p2766
sg2760
I1387305000
sba(iflightmod
Flight
p2767
(dp2768
g2751
S'Rome'
p2769
sg2753
I1387311900
sg2754
S'A320'
p2770
sg2756
S'AZ1483'
p2771
sg2758
S'Alitalia'
p2772
sg2760
I1387308000
sba(iflightmod
Flight
p2773
(dp2774
g2751
S'Vienna'
p2775
sg2753
I1387313100
sg2754
S'DH4'
p2776
sg2756
S'OS527'
p2777
sg2758
S'Austrian Airlines'
p2778
sg2760
I1387308900
sba(iflightmod
Flight
p2779
(dp2780
S'origin'
p2781
S'Munich'
p2782
sS'arrival'
p2783
I1387294500
sS'aircraft'
p2784
S'E190'
p2785
sS'flight'
p2786
S'EN8204'
p2787
sS'airline'
p2788
S'Air Dolomiti'
p2789
sS'departure'
p2790
I1387290900
sba(iflightmod
Flight
p2791
(dp2792
g2781
S'Amsterdam'
p2793
sg2783
I1387295700
sg2784
S'B737'
p2794
sg2786
S'KL1655'
p2795
sg2788
S'KLM'
p2796
sg2790
I1387289400
sba(iflightmod
Flight
p2797
(dp2798
g2781
S'Istanbul'
p2799
sg2783
I1387299600
sg2784
S'A321'
p2800
sg2786
S'TK1869'
p2801
sg2788
S'Turkish Airlines'
p2802
sg2790
I1387290300
sba(iflightmod
Flight
p2803
(dp2804
g2781
S'Moscow'
p2805
sg2783
I1387314000
sg2784
S'A320'
p2806
sg2786
S'SU2422'
p2807
sg2788
S'Aeroflot'
p2808
sg2790
I1387301700
sba(iflightmod
Flight
p2809
(dp2810
g2781
S'Paris'
p2811
sg2783
I1387314600
sg2784
S'A318'
p2812
sg2786
S'AF1326'
p2813
sg2788
S'Air France'
p2814
sg2790
I1387308600
sba(iflightmod
Flight
p2815
(dp2816
S'origin'
p2817
S'Frankfurt'
p2818
sS'arrival'
p2819
I1387300200
sS'aircraft'
p2820
S'A320'
p2821
sS'flight'
p2822
S'LH330'
p2823
sS'airline'
p2824
S'Lufthansa'
p2825
sS'departure'
p2826
I1387295400
sba(iflightmod
Flight
p2827
(dp2828
g2817
S'Amsterdam'
p2829
sg2819
I1387315200
sg2820
S'B737'
p2830
sg2822
S'KL1659'
p2831
sg2824
S'KLM'
p2832
sg2826
I1387308900
sba(iflightmod
Flight
p2833
(dp2834
g2817
S'Rome'
p2835
sg2819
I1387315500
sg2820
S'32S'
p2836
sg2822
S'AZ1473'
p2837
sg2824
S'Alitalia'
p2838
sg2826
I1387311600
sba(iflightmod
Flight
p2839
(dp2840
g2817
S'Munich'
p2841
sg2819
I1387315500
sg2820
S'E95'
p2842
sg2822
S'EN8206'
p2843
sg2824
S'Air Dolomiti'
p2844
sg2826
I1387311900
sba(iflightmod
Flight
p2845
(dp2846
S'origin'
p2847
S'Zurich'
p2848
sS'arrival'
p2849
I1387302600
sS'aircraft'
p2850
S'RJ1H'
p2851
sS'flight'
p2852
S'LX1664'
p2853
sS'airline'
p2854
S'Swiss'
p2855
sS'departure'
p2856
I1387298400
sba(iflightmod
Flight
p2857
(dp2858
g2847
S'Tirana'
p2859
sg2849
I1387305000
sg2850
S'B734'
p2860
sg2852
S'BV3225'
p2861
sg2854
S'Blue Panorama Airlines'
p2862
sg2856
I1387299600
sba(iflightmod
Flight
p2863
(dp2864
g2847
S'Brussels'
p2865
sg2849
I1387316100
sg2850
S'AR1'
p2866
sg2852
S'SN3207'
p2867
sg2854
S'Brussels Airlines'
p2868
sg2856
I1387309800
sba(iflightmod
Flight
p2869
(dp2870
g2847
S'Frankfurt'
p2871
sg2849
I1387318500
sg2850
S'32A'
p2872
sg2852
S'LH332'
p2873
sg2854
S'Lufthansa'
p2874
sg2856
I1387313700
sba(iflightmod
Flight
p2875
(dp2876
g2847
S'Catania'
p2877
sg2849
I1387319100
sg2850
S'A320'
p2878
sg2852
S'AP872'
p2879
sg2854
S'Air One'
p2880
sg2856
I1387313100
sba(iflightmod
Flight
p2881
(dp2882
g2847
S'Catania'
p2883
sg2849
I1387319700
sg2850
S'B717'
p2884
sg2852
S'V71265'
p2885
sg2854
S'Volotea'
p2886
sg2856
I1387313400
sba(iflightmod
Flight
p2887
(dp2888
g2847
S'Chisinau'
p2889
sg2849
I1387350000
sg2850
S'B733'
p2890
sg2852
S'V3260'
p2891
sg2854
S'Carpatair'
p2892
sg2856
I1387341900
sba(iflightmod
Flight
p2893
(dp2894
S'origin'
p2895
S'Rome'
p2896
sS'arrival'
p2897
I1387303500
sS'aircraft'
p2898
S'E170'
p2899
sS'flight'
p2900
S'AZ1467'
p2901
sS'airline'
p2902
S'Alitalia'
p2903
sS'departure'
p2904
I1387299600
sba(iflightmod
Flight
p2905
(dp2906
g2895
S'Munich'
p2907
sg2897
I1387350300
sg2898
S'E95'
p2908
sg2900
S'EN8200'
p2909
sg2902
S'Air Dolomiti'
p2910
sg2904
I1387346700
sba(iflightmod
Flight
p2911
(dp2912
g2895
S'Amsterdam'
p2913
sg2897
I1387352400
sg2898
S'B737'
p2914
sg2900
S'HV5495'
p2915
sg2902
S'Transavia'
p2916
sg2904
I1387346100
sba(iflightmod
Flight
p2917
(dp2918
g2895
S'Zurich'
p2919
sg2897
I1387352400
sg2898
S'AR1'
p2920
sg2900
S'LX1660'
p2921
sg2902
S'Swiss'
p2922
sg2904
I1387348200
sba(iflightmod
Flight
p2923
(dp2924
S'origin'
p2925
S'Rome'
p2926
sS'arrival'
p2927
I1387307100
sS'aircraft'
p2928
S'A320'
p2929
sS'flight'
p2930
S'AZ1481'
p2931
sS'airline'
p2932
S'Alitalia'
p2933
sS'departure'
p2934
I1387303200
sba(iflightmod
Flight
p2935
(dp2936
g2925
S'Paris'
p2937
sg2927
I1387353600
sg2928
S'A318'
p2938
sg2930
S'AF1126'
p2939
sg2932
S'Air France'
p2940
sg2934
I1387347600
sba(iflightmod
Flight
p2941
(dp2942
g2925
S'Rome'
p2943
sg2927
I1387355100
sg2928
S'E190'
p2944
sg2930
S'AZ1471'
p2945
sg2932
S'Alitalia'
p2946
sg2934
I1387351200
sba(iflightmod
Flight
p2947
(dp2948
g2925
S'Istanbul'
p2949
sg2927
I1387355100
sg2928
S'A321'
p2950
sg2930
S'TK1867'
p2951
sg2932
S'Turkish Airlines'
p2952
sg2934
I1387346100
sba(iflightmod
Flight
p2953
(dp2954
g2925
S'Naples'
p2955
sg2927
I1387356900
sg2928
S'A319'
p2956
sg2930
S'U2991'
p2957
sg2932
S'EasyJet'
p2958
sg2934
I1387352400
sba(iflightmod
Flight
p2959
(dp2960
g2925
S'Tunis'
p2961
sg2927
I1387357800
sg2928
S'B736'
p2962
sg2930
S'TU472'
p2963
sg2932
S'Tunisair'
p2964
sg2934
I1387351800
sba(iflightmod
Flight
p2965
(dp2966
g2925
S'Frankfurt'
p2967
sg2927
I1387358100
sg2928
S'A320'
p2968
sg2930
S'LH324'
p2969
sg2932
S'Lufthansa'
p2970
sg2934
I1387353300
sba(iflightmod
Flight
p2971
(dp2972
g2925
S'Lyon'
p2973
sg2927
I1387358100
sg2928
S'CR7'
p2974
sg2930
S'A54522'
p2975
sg2932
S'HOP!'
p2976
sg2934
I1387353300
sba(iflightmod
Flight
p2977
(dp2978
g2925
S'Vienna'
p2979
sg2927
I1387358400
sg2928
S'DH4'
p2980
sg2930
S'OS521'
p2981
sg2932
S'Austrian Airlines'
p2982
sg2934
I1387354200
sba(iflightmod
Flight
p2983
(dp2984
S'origin'
p2985
S'Catania'
p2986
sS'arrival'
p2987
I1387359300
sS'aircraft'
p2988
S'A320'
p2989
sS'flight'
p2990
S'AP870'
p2991
sS'airline'
p2992
S'Air One'
p2993
sS'departure'
p2994
I1387353300
sba(iflightmod
Flight
p2995
(dp2996
g2985
S'Palermo'
p2997
sg2987
I1387359600
sg2988
S'B717'
p2998
sg2990
S'V71219'
p2999
sg2992
S'Volotea'
p3000
sg2994
I1387353900
sba(iflightmod
Flight
p3001
(dp3002
S'origin'
p3003
S'Rome'
p3004
sS'arrival'
p3005
I1387315500
sS'aircraft'
p3006
S'A320'
p3007
sS'flight'
p3008
S'AZ1473'
p3009
sS'airline'
p3010
S'Alitalia'
p3011
sS'departure'
p3012
I1387311600
sba(iflightmod
Flight
p3013
(dp3014
g3003
S'Brussels'
p3015
sg3005
I1387316100
sg3006
S'RJ1H'
p3016
sg3008
S'SN3207'
p3017
sg3010
S'Brussels Airlines'
p3018
sg3012
I1387309800
sba(iflightmod
Flight
p3019
(dp3020
g3003
S'Frankfurt'
p3021
sg3005
I1387318500
sg3006
S'A320'
p3022
sg3008
S'LH332'
p3023
sg3010
S'Lufthansa'
p3024
sg3012
I1387313700
sba(iflightmod
Flight
p3025
(dp3026
g3003
S'London'
p3027
sg3005
I1387360200
sg3006
S'A320'
p3028
sg3008
S'BA2582'
p3029
sg3010
S'British Airways'
p3030
sg3012
I1387352700
sba(iflightmod
Flight
p3031
(dp3032
S'origin'
p3033
S'Catania'
p3034
sS'arrival'
p3035
I1387319700
sS'aircraft'
p3036
S'B712'
p3037
sS'flight'
p3038
S'V71265'
p3039
sS'airline'
p3040
S'Volotea'
p3041
sS'departure'
p3042
I1387313400
sba(iflightmod
Flight
p3043
(dp3044
g3033
S'Rome'
p3045
sg3035
I1387361700
sg3036
S'A320'
p3046
sg3038
S'AZ1463'
p3047
sg3040
S'Alitalia'
p3048
sg3042
I1387357800
sba(iflightmod
Flight
p3049
(dp3050
g3033
S'Madrid'
p3051
sg3035
I1387362000
sg3036
S'A319'
p3052
sg3038
S'IB3242'
p3053
sg3040
S'Iberia'
p3054
sg3042
I1387353000
sba(iflightmod
Flight
p3055
(dp3056
g3033
S'Marseille'
p3057
sg3035
I1387362300
sg3036
S'A320'
p3058
sg3038
S'AF4332'
p3059
sg3040
S'Air France'
p3060
sg3042
I1387357800
sba(iflightmod
Flight
p3061
(dp3062
g3033
S'Berlin'
p3063
sg3035
I1387363200
sg3036
S'A319'
p3064
sg3038
S'U24651'
p3065
sg3040
S'EasyJet'
p3066
sg3042
I1387356900
sba(iflightmod
Flight
p3067
(dp3068
g3033
S'Amsterdam'
p3069
sg3035
I1387363500
sg3036
S'B737'
p3070
sg3038
S'KL1653'
p3071
sg3040
S'KLM'
p3072
sg3042
I1387356900
sba(iflightmod
Flight
p3073
(dp3074
g3033
S'Brussels'
p3075
sg3035
I1387363500
sg3036
S'AR1'
p3076
sg3038
S'SN3201'
p3077
sg3040
S'Brussels Airlines'
p3078
sg3042
I1387357500
sba(iflightmod
Flight
p3079
(dp3080
g3033
S'Frankfurt'
p3081
sg3035
I1387363800
sg3036
S'32A'
p3082
sg3038
S'LH326'
p3083
sg3040
S'Lufthansa'
p3084
sg3042
I1387359000
sba(iflightmod
Flight
p3085
(dp3086
S'origin'
p3087
S'London'
p3088
sS'arrival'
p3089
I1387363800
sS'aircraft'
p3090
S'A319'
p3091
sS'flight'
p3092
S'BA578'
p3093
sS'airline'
p3094
S'British Airways'
p3095
sS'departure'
p3096
I1387356300
sba(iflightmod
Flight
p3097
(dp3098
g3087
S'Moscow'
p3099
sg3089
I1387363800
sg3090
S'A320'
p3100
sg3092
S'SU2596'
p3101
sg3094
S'Aeroflot'
p3102
sg3096
I1387351500
sba(iflightmod
Flight
p3103
(dp3104
g3087
S'Paris'
p3105
sg3089
I1387364400
sg3090
S'A318'
p3106
sg3092
S'AF1426'
p3107
sg3094
S'Air France'
p3108
sg3096
I1387358400
sba(iflightmod
Flight
p3109
(dp3110
S'origin'
p3111
S'Istanbul'
p3112
sS'arrival'
p3113
I1387355100
sS'aircraft'
p3114
S'A320'
p3115
sS'flight'
p3116
S'TK1867'
p3117
sS'airline'
p3118
S'Turkish Airlines'
p3119
sS'departure'
p3120
I1387346100
sba(iflightmod
Flight
p3121
(dp3122
S'origin'
p3123
S'Munich'
p3124
sS'arrival'
p3125
I1387350300
sS'aircraft'
p3126
S'E190'
p3127
sS'flight'
p3128
S'EN8200'
p3129
sS'airline'
p3130
S'Air Dolomiti'
p3131
sS'departure'
p3132
I1387346700
sba(iflightmod
Flight
p3133
(dp3134
g3123
S'Amsterdam'
p3135
sg3125
I1387352400
sg3126
S'B738'
p3136
sg3128
S'HV5495'
p3137
sg3130
S'Transavia'
p3138
sg3132
I1387346100
sba(iflightmod
Flight
p3139
(dp3140
g3123
S'Zurich'
p3141
sg3125
I1387352400
sg3126
S'RJ1H'
p3142
sg3128
S'LX1660'
p3143
sg3130
S'Swiss'
p3144
sg3132
I1387348200
sba(iflightmod
Flight
p3145
(dp3146
S'origin'
p3147
S'Dusseldorf'
p3148
sS'arrival'
p3149
I1387364700
sS'aircraft'
p3150
S'DH4'
p3151
sS'flight'
p3152
S'AB8862'
p3153
sS'airline'
p3154
S'Air Berlin'
p3155
sS'departure'
p3156
I1387358400
sba(iflightmod
Flight
p3157
(dp3158
g3147
S'Barcelona'
p3159
sg3149
I1387365600
sg3150
S'A320'
p3160
sg3152
S'VY6400'
p3161
sg3154
S'Vueling'
p3162
sg3156
I1387359300
sba(iflightmod
Flight
p3163
(dp3164
g3147
S'Munich'
p3165
sg3149
I1387366200
sg3150
S'E95'
p3166
sg3152
S'EN8202'
p3167
sg3154
S'Air Dolomiti'
p3168
sg3156
I1387362600
sba(iflightmod
Flight
p3169
(dp3170
g3147
S'Istanbul'
p3171
sg3149
I1387369200
sg3150
S'B739'
p3172
sg3152
S'TK1871'
p3173
sg3154
S'Turkish Airlines'
p3174
sg3156
I1387360200
sba(iflightmod
Flight
p3175
(dp3176
S'origin'
p3177
S'Lyon'
p3178
sS'arrival'
p3179
I1387358100
sS'aircraft'
p3180
S'CRJ7'
p3181
sS'flight'
p3182
S'A54522'
p3183
sS'airline'
p3184
S'HOP!'
p3185
sS'departure'
p3186
I1387353300
sba(iflightmod
Flight
p3187
(dp3188
g3177
S'Rome'
p3189
sg3179
I1387370100
sg3180
S'A319'
p3190
sg3182
S'AZ1465'
p3191
sg3184
S'Alitalia'
p3192
sg3186
I1387366200
sba(iflightmod
Flight
p3193
(dp3194
g3177
S'Frankfurt'
p3195
sg3179
I1387370100
sg3180
S'B735'
p3196
sg3182
S'LH328'
p3197
sg3184
S'Lufthansa'
p3198
sg3186
I1387365300
sba(iflightmod
Flight
p3199
(dp3200
g3177
S'Doha'
p3201
sg3179
I1387370400
sg3180
S'A320'
p3202
sg3182
S'QR129'
p3203
sg3184
S'Qatar Airways'
p3204
sg3186
I1387346700
sba(iflightmod
Flight
p3205
(dp3206
S'origin'
p3207
S'Marseille'
p3208
sS'arrival'
p3209
I1387362300
sS'aircraft'
p3210
S'A319'
p3211
sS'flight'
p3212
S'AF4332'
p3213
sS'airline'
p3214
S'Air France'
p3215
sS'departure'
p3216
I1387357800
sba(iflightmod
Flight
p3217
(dp3218
g3207
S'Brussels'
p3219
sg3209
I1387363500
sg3210
S'RJ1H'
p3220
sg3212
S'SN3201'
p3221
sg3214
S'Brussels Airlines'
p3222
sg3216
I1387357500
sba(iflightmod
Flight
p3223
(dp3224
g3207
S'Dubai'
p3225
sg3209
I1387370700
sg3210
S'B77W'
p3226
sg3212
S'EK135'
p3227
sg3214
S'Emirates'
p3228
sg3216
I1387346700
sba(iflightmod
Flight
p3229
(dp3230
g3207
S'Zurich'
p3231
sg3209
I1387371600
sg3210
S'A319'
p3232
sg3212
S'LX1662'
p3233
sg3214
S'Swiss'
p3234
sg3216
I1387367700
sba(iflightmod
Flight
p3235
(dp3236
g3207
S'Paris'
p3237
sg3209
I1387371900
sg3210
S'A319'
p3238
sg3212
S'U23793'
p3239
sg3214
S'EasyJet'
p3240
sg3216
I1387365900
sba(iflightmod
Flight
p3241
(dp3242
g3207
S'Cologne'
p3243
sg3209
I1387372800
sg3210
S'A319'
p3244
sg3212
S'4U814'
p3245
sg3214
S'Germanwings'
p3246
sg3216
I1387367400
sba(iflightmod
Flight
p3247
(dp3248
g3207
S'London'
p3249
sg3209
I1387372800
sg3210
S'E170'
p3250
sg3212
S'BA8479'
p3251
sg3214
S'British Airways'
p3252
sg3216
I1387365300
sba(iflightmod
Flight
p3253
(dp3254
g3207
S'Prague'
p3255
sg3209
I1387373700
sg3210
S'A320'
p3256
sg3212
S'AP753'
p3257
sg3214
S'Air One'
p3258
sg3216
I1387368600
sba(iflightmod
Flight
p3259
(dp3260
g3207
S'Paris'
p3261
sg3209
I1387374000
sg3210
S'A319'
p3262
sg3212
S'AF1726'
p3263
sg3214
S'Air France'
p3264
sg3216
I1387368000
sba(iflightmod
Flight
p3265
(dp3266
S'origin'
p3267
S'Munich'
p3268
sS'arrival'
p3269
I1387366200
sS'aircraft'
p3270
S'E190'
p3271
sS'flight'
p3272
S'EN8202'
p3273
sS'airline'
p3274
S'Air Dolomiti'
p3275
sS'departure'
p3276
I1387362600
sba(iflightmod
Flight
p3277
(dp3278
g3267
S'Catania'
p3279
sg3269
I1387375200
sg3270
S'B717'
p3280
sg3272
S'V71265'
p3281
sg3274
S'Volotea'
p3282
sg3276
I1387368900
sba(iflightmod
Flight
p3283
(dp3284
g3267
S'Moscow'
p3285
sg3269
I1387375800
sg3270
S'B737'
p3286
sg3272
S'UN393'
p3287
sg3274
S'Transaero Airlines'
p3288
sg3276
I1387363800
sba(iflightmod
Flight
p3289
(dp3290
g3267
S'London'
p3291
sg3269
I1387376700
sg3270
S'B734'
p3292
sg3272
S'BA2584'
p3293
sg3274
S'British Airways'
p3294
sg3276
I1387369500
sba(iflightmod
Flight
p3295
(dp3296
g3267
S'Rome'
p3297
sg3269
I1387377600
sg3270
S'A320'
p3298
sg3272
S'AZ1475'
p3299
sg3274
S'Alitalia'
p3300
sg3276
I1387373700
sba(iflightmod
Flight
p3301
(dp3302
g3267
S'Tirana'
p3303
sg3269
I1387380300
sg3270
S'A320'
p3304
sg3272
S'AP751'
p3305
sg3274
S'Air One'
p3306
sg3276
I1387374300
sba(iflightmod
Flight
p3307
(dp3308
S'origin'
p3309
S'Lisbon'
p3310
sS'arrival'
p3311
I1387380600
sS'aircraft'
p3312
S'A320'
p3313
sS'flight'
p3314
S'TP876'
p3315
sS'airline'
p3316
S'TAP Portugal'
p3317
sS'departure'
p3318
I1387369800
sba(iflightmod
Flight
p3319
(dp3320
g3309
S'Munich'
p3321
sg3311
I1387380900
sg3312
S'E95'
p3322
sg3314
S'EN8204'
p3323
sg3316
S'Air Dolomiti'
p3324
sg3318
I1387377300
sba(iflightmod
Flight
p3325
(dp3326
g3309
S'Lyon'
p3327
sg3311
I1387381800
sg3312
S'E145'
p3328
sg3314
S'A54526'
p3329
sg3316
S'HOP!'
p3330
sg3318
I1387377000
sba(iflightmod
Flight
p3331
(dp3332
g3309
S'Amsterdam'
p3333
sg3311
I1387382100
sg3312
S'B737'
p3334
sg3314
S'KL1655'
p3335
sg3316
S'KLM'
p3336
sg3318
I1387375800
sba(iflightmod
Flight
p3337
(dp3338
g3309
S'Brussels'
p3339
sg3311
I1387383900
sg3312
S'AR1'
p3340
sg3314
S'SN3205'
p3341
sg3316
S'Brussels Airlines'
p3342
sg3318
I1387377900
sba(iflightmod
Flight
p3343
(dp3344
g3309
S'London'
p3345
sg3311
I1387384200
sg3312
S'A319'
p3346
sg3314
S'U25267'
p3347
sg3316
S'EasyJet'
p3348
sg3318
I1387376700
sba(iflightmod
Flight
p3349
(dp3350
g3309
S'Tirana'
p3351
sg3311
I1387384200
sg3312
S'A319'
p3352
sg3314
S'LZ673'
p3353
sg3316
S'Belle Air'
p3354
sg3318
I1387378800
sba(iflightmod
Flight
p3355
(dp3356
g3309
S'Paris'
p3357
sg3311
I1387384500
sg3312
S'A318'
p3358
sg3314
S'AF1226'
p3359
sg3316
S'Air France'
p3360
sg3318
I1387378500
sba(iflightmod
Flight
p3361
(dp3362
g3309
S'Istanbul'
p3363
sg3311
I1387386000
sg3312
S'A320'
p3364
sg3314
S'TK1869'
p3365
sg3316
S'Turkish Airlines'
p3366
sg3318
I1387376700
sba(iflightmod
Flight
p3367
(dp3368
S'origin'
p3369
S'Catania'
p3370
sS'arrival'
p3371
I1387375200
sS'aircraft'
p3372
S'B712'
p3373
sS'flight'
p3374
S'V71265'
p3375
sS'airline'
p3376
S'Volotea'
p3377
sS'departure'
p3378
I1387368900
sba(iflightmod
Flight
p3379
(dp3380
g3369
S'Frankfurt'
p3381
sg3371
I1387386600
sg3372
S'32A'
p3382
sg3374
S'LH330'
p3383
sg3376
S'Lufthansa'
p3384
sg3378
I1387381800
sba(iflightmod
Flight
p3385
(dp3386
g3369
S'Vienna'
p3387
sg3371
I1387387800
sg3372
S'DH4'
p3388
sg3374
S'OS529'
p3389
sg3376
S'Austrian Airlines'
p3390
sg3378
I1387383600
sba(iflightmod
Flight
p3391
(dp3392
g3369
S'London'
p3393
sg3371
I1387389000
sg3372
S'B734'
p3394
sg3374
S'BA2586'
p3395
sg3376
S'British Airways'
p3396
sg3378
I1387382100
sba(iflightmod
Flight
p3397
(dp3398
g3369
S'Naples'
p3399
sg3371
I1387389000
sg3372
S'A319'
p3400
sg3374
S'U2997'
p3401
sg3376
S'EasyJet'
p3402
sg3378
I1387384500
sba(iflightmod
Flight
p3403
(dp3404
S'origin'
p3405
S'Zurich'
p3406
sS'arrival'
p3407
I1387389000
sS'aircraft'
p3408
S'AR1'
p3409
sS'flight'
p3410
S'LX1664'
p3411
sS'airline'
p3412
S'Swiss'
p3413
sS'departure'
p3414
I1387384800
sba(iflightmod
Flight
p3415
(dp3416
g3405
S'Rome'
p3417
sg3407
I1387389900
sg3408
S'E75'
p3418
sg3410
S'AZ1467'
p3419
sg3412
S'Alitalia'
p3420
sg3414
I1387386000
sba(iflightmod
Flight
p3421
(dp3422
g3405
S'Madrid'
p3423
sg3407
I1387390500
sg3408
S'A321'
p3424
sg3410
S'IB3246'
p3425
sg3412
S'Iberia'
p3426
sg3414
I1387381800
sba(iflightmod
Flight
p3427
(dp3428
g3405
S'Paris'
p3429
sg3407
I1387390800
sg3408
S'A320'
p3430
sg3410
S'U24295'
p3431
sg3412
S'EasyJet'
p3432
sg3414
I1387384800
sba(iflightmod
Flight
p3433
(dp3434
g3405
S'Lisbon'
p3435
sg3407
I1387391100
sg3408
S'A319'
p3436
sg3410
S'U27681'
p3437
sg3412
S'EasyJet'
p3438
sg3414
I1387380600
sba(iflightmod
Flight
p3439
(dp3440
g3405
S'Tirana'
p3441
sg3407
I1387391400
sg3408
S'B737'
p3442
sg3410
S'BV3225'
p3443
sg3412
S'Blue Panorama Airlines'
p3444
sg3414
I1387386000
sba(iflightmod
Flight
p3445
(dp3446
g3405
S'Barcelona'
p3447
sg3407
I1387392300
sg3408
S'A320'
p3448
sg3410
S'VY6402'
p3449
sg3412
S'Vueling'
p3450
sg3414
I1387386000
sba(iflightmod
Flight
p3451
(dp3452
S'origin'
p3453
S'Munich'
p3454
sS'arrival'
p3455
I1387380900
sS'aircraft'
p3456
S'E190'
p3457
sS'flight'
p3458
S'EN8204'
p3459
sS'airline'
p3460
S'Air Dolomiti'
p3461
sS'departure'
p3462
I1387377300
sba(iflightmod
Flight
p3463
(dp3464
g3453
S'Brussels'
p3465
sg3455
I1387383900
sg3456
S'RJ1H'
p3466
sg3458
S'SN3205'
p3467
sg3460
S'Brussels Airlines'
p3468
sg3462
I1387377900
sba(iflightmod
Flight
p3469
(dp3470
g3453
S'Rome'
p3471
sg3455
I1387393500
sg3456
S'32S'
p3472
sg3458
S'AZ1481'
p3473
sg3460
S'Alitalia'
p3474
sg3462
I1387389600
sba(iflightmod
Flight
p3475
(dp3476
g3453
S'Paris'
p3477
sg3455
I1387395000
sg3456
S'A319'
p3478
sg3458
S'U23795'
p3479
sg3460
S'EasyJet'
p3480
sg3462
I1387389000
sba(iflightmod
Flight
p3481
(dp3482
g3453
S'Rome'
p3483
sg3455
I1387398300
sg3456
S'A320'
p3484
sg3458
S'AZ1483'
p3485
sg3460
S'Alitalia'
p3486
sg3462
I1387394400
sba(iflightmod
Flight
p3487
(dp3488
g3453
S'Vienna'
p3489
sg3455
I1387399500
sg3456
S'DH4'
p3490
sg3458
S'OS527'
p3491
sg3460
S'Austrian Airlines'
p3492
sg3462
I1387395300
sba(iflightmod
Flight
p3493
(dp3494
S'origin'
p3495
S'Frankfurt'
p3496
sS'arrival'
p3497
I1387386600
sS'aircraft'
p3498
S'A320'
p3499
sS'flight'
p3500
S'LH330'
p3501
sS'airline'
p3502
S'Lufthansa'
p3503
sS'departure'
p3504
I1387381800
sba(iflightmod
Flight
p3505
(dp3506
g3495
S'Moscow'
p3507
sg3497
I1387400400
sg3498
S'A319'
p3508
sg3500
S'SU2422'
p3509
sg3502
S'Aeroflot'
p3510
sg3504
I1387388100
sba(iflightmod
Flight
p3511
(dp3512
g3495
S'Paris'
p3513
sg3497
I1387401000
sg3498
S'A318'
p3514
sg3500
S'AF1326'
p3515
sg3502
S'Air France'
p3516
sg3504
I1387395000
sba(iflightmod
Flight
p3517
(dp3518
g3495
S'Amsterdam'
p3519
sg3497
I1387401600
sg3498
S'B737'
p3520
sg3500
S'KL1659'
p3521
sg3502
S'KLM'
p3522
sg3504
I1387395300
sba(iflightmod
Flight
p3523
(dp3524
S'origin'
p3525
S'Bari'
p3526
sS'arrival'
p3527
I1387401900
sS'aircraft'
p3528
S'B717'
p3529
sS'flight'
p3530
S'V71235'
p3531
sS'airline'
p3532
S'Volotea'
p3533
sS'departure'
p3534
I1387397100
sba(iflightmod
Flight
p3535
(dp3536
g3525
S'Rome'
p3537
sg3527
I1387401900
sg3528
S'A320'
p3538
sg3530
S'AZ1473'
p3539
sg3532
S'Alitalia'
p3540
sg3534
I1387398000
sba(iflightmod
Flight
p3541
(dp3542
g3525
S'Munich'
p3543
sg3527
I1387401900
sg3528
S'E95'
p3544
sg3530
S'EN8206'
p3545
sg3532
S'Air Dolomiti'
p3546
sg3534
I1387398300
sba(iflightmod
Flight
p3547
(dp3548
g3525
S'Brussels'
p3549
sg3527
I1387402500
sg3528
S'AR1'
p3550
sg3530
S'SN3207'
p3551
sg3532
S'Brussels Airlines'
p3552
sg3534
I1387396200
sba(iflightmod
Flight
p3553
(dp3554
g3525
S'Frankfurt'
p3555
sg3527
I1387404900
sg3528
S'A321'
p3556
sg3530
S'LH332'
p3557
sg3532
S'Lufthansa'
p3558
sg3534
I1387400100
sba(iflightmod
Flight
p3559
(dp3560
g3525
S'Catania'
p3561
sg3527
I1387405500
sg3528
S'A320'
p3562
sg3530
S'AP872'
p3563
sg3532
S'Air One'
p3564
sg3534
I1387399500
sba(iflightmod
Flight
p3565
(dp3566
S'origin'
p3567
S'Zurich'
p3568
sS'arrival'
p3569
I1387389000
sS'aircraft'
p3570
S'RJ1H'
p3571
sS'flight'
p3572
S'LX1664'
p3573
sS'airline'
p3574
S'Swiss'
p3575
sS'departure'
p3576
I1387384800
sba(iflightmod
Flight
p3577
(dp3578
g3567
S'Rome'
p3579
sg3569
I1387389900
sg3570
S'E170'
p3580
sg3572
S'AZ1467'
p3581
sg3574
S'Alitalia'
p3582
sg3576
I1387386000
sba(iflightmod
Flight
p3583
(dp3584
g3567
S'Tirana'
p3585
sg3569
I1387391400
sg3570
S'B734'
p3586
sg3572
S'BV3225'
p3587
sg3574
S'Blue Panorama Airlines'
p3588
sg3576
I1387386000
sba(iflightmod
Flight
p3589
(dp3590
g3567
S'Casablanca'
p3591
sg3569
I1387430400
sg3570
S'A320'
p3592
sg3572
S'3O2477'
p3593
sg3574
S'Air Arabia Maroc'
p3594
sg3576
I1387415700
sba(iflightmod
Flight
p3595
(dp3596
g3567
S'Tirana'
p3597
sg3569
I1387434300
sg3570
S'A319'
p3598
sg3572
S'LZ673'
p3599
sg3574
S'Belle Air'
p3600
sg3576
I1387429200
sba(iflightmod
Flight
p3601
(dp3602
g3567
S'Munich'
p3603
sg3569
I1387436700
sg3570
S'E95'
p3604
sg3572
S'EN8200'
p3605
sg3574
S'Air Dolomiti'
p3606
sg3576
I1387433100
sba(iflightmod
Flight
p3607
(dp3608
S'origin'
p3609
S'Rome'
p3610
sS'arrival'
p3611
I1387393500
sS'aircraft'
p3612
S'A320'
p3613
sS'flight'
p3614
S'AZ1481'
p3615
sS'airline'
p3616
S'Alitalia'
p3617
sS'departure'
p3618
I1387389600
sba(iflightmod
Flight
p3619
(dp3620
g3609
S'Nantes'
p3621
sg3611
I1387438500
sg3612
S'B738'
p3622
sg3614
S'TO3972'
p3623
sg3616
S'Transavia France'
p3624
sg3618
I1387431600
sba(iflightmod
Flight
p3625
(dp3626
g3609
S'Zurich'
p3627
sg3611
I1387438800
sg3612
S'AR1'
p3628
sg3614
S'LX1660'
p3629
sg3616
S'Swiss'
p3630
sg3618
I1387434600
sba(iflightmod
Flight
p3631
(dp3632
g3609
S'Paris'
p3633
sg3611
I1387440000
sg3612
S'A319'
p3634
sg3614
S'AF1126'
p3635
sg3616
S'Air France'
p3636
sg3618
I1387434000
sba(iflightmod
Flight
p3637
(dp3638
g3609
S'Paris'
p3639
sg3611
I1387440000
sg3612
S'A320'
p3640
sg3614
S'U24291'
p3641
sg3616
S'EasyJet'
p3642
sg3618
I1387434000
sba(iflightmod
Flight
p3643
(dp3644
g3609
S'Rome'
p3645
sg3611
I1387441500
sg3612
S'E75'
p3646
sg3614
S'AZ1471'
p3647
sg3616
S'Alitalia'
p3648
sg3618
I1387437600
sba(iflightmod
Flight
p3649
(dp3650
g3609
S'Istanbul'
p3651
sg3611
I1387441500
sg3612
S'A321'
p3652
sg3614
S'TK1867'
p3653
sg3616
S'Turkish Airlines'
p3654
sg3618
I1387432500
sba(iflightmod
Flight
p3655
(dp3656
g3609
S'Naples'
p3657
sg3611
I1387443300
sg3612
S'A319'
p3658
sg3614
S'U2991'
p3659
sg3616
S'EasyJet'
p3660
sg3618
I1387438800
sba(iflightmod
Flight
p3661
(dp3662
g3609
S'Reggio Calabria'
p3663
sg3611
I1387443300
sg3612
S'B717'
p3664
sg3614
S'V71249'
p3665
sg3616
S'Volotea'
p3666
sg3618
I1387437600
sba(iflightmod
Flight
p3667
(dp3668
S'origin'
p3669
S'Lyon'
p3670
sS'arrival'
p3671
I1387444500
sS'aircraft'
p3672
S'CR7'
p3673
sS'flight'
p3674
S'A54522'
p3675
sS'airline'
p3676
S'HOP!'
p3677
sS'departure'
p3678
I1387439700
sba(iflightmod
Flight
p3679
(dp3680
g3669
S'Vienna'
p3681
sg3671
I1387444800
sg3672
S'DH4'
p3682
sg3674
S'OS521'
p3683
sg3676
S'Austrian Airlines'
p3684
sg3678
I1387440600
sba(iflightmod
Flight
p3685
(dp3686
g3669
S'Catania'
p3687
sg3671
I1387445100
sg3672
S'A320'
p3688
sg3674
S'AP870'
p3689
sg3676
S'Air One'
p3690
sg3678
I1387439100
sba(iflightmod
Flight
p3691
(dp3692
S'origin'
p3693
S'Bari'
p3694
sS'arrival'
p3695
I1387401900
sS'aircraft'
p3696
S'B712'
p3697
sS'flight'
p3698
S'V71235'
p3699
sS'airline'
p3700
S'Volotea'
p3701
sS'departure'
p3702
I1387397100
sba(iflightmod
Flight
p3703
(dp3704
g3693
S'Rome'
p3705
sg3695
I1387401900
sg3696
S'A319'
p3706
sg3698
S'AZ1473'
p3707
sg3700
S'Alitalia'
p3708
sg3702
I1387398000
sba(iflightmod
Flight
p3709
(dp3710
g3693
S'Munich'
p3711
sg3695
I1387401900
sg3696
S'E190'
p3712
sg3698
S'EN8206'
p3713
sg3700
S'Air Dolomiti'
p3714
sg3702
I1387398300
sba(iflightmod
Flight
p3715
(dp3716
g3693
S'Brussels'
p3717
sg3695
I1387402500
sg3696
S'RJ1H'
p3718
sg3698
S'SN3207'
p3719
sg3700
S'Brussels Airlines'
p3720
sg3702
I1387396200
sba(iflightmod
Flight
p3721
(dp3722
g3693
S'Frankfurt'
p3723
sg3695
I1387445100
sg3696
S'32A'
p3724
sg3698
S'LH324'
p3725
sg3700
S'Lufthansa'
p3726
sg3702
I1387440300
sba(iflightmod
Flight
p3727
(dp3728
S'origin'
p3729
S'Lamezia Terme'
p3730
sS'arrival'
p3731
I1387445700
sS'aircraft'
p3732
S'B717'
p3733
sS'flight'
p3734
S'V71253'
p3735
sS'airline'
p3736
S'Volotea'
p3737
sS'departure'
p3738
I1387440000
sba(iflightmod
Flight
p3739
(dp3740
g3729
S'London'
p3741
sg3731
I1387446000
sg3732
S'B734'
p3742
sg3734
S'BA2582'
p3743
sg3736
S'British Airways'
p3744
sg3738
I1387438500
sba(iflightmod
Flight
p3745
(dp3746
g3729
S'Manchester'
p3747
sg3731
I1387447800
sg3732
S'A320'
p3748
sg3734
S'ZB1376'
p3749
sg3736
S'Monarch Airlines'
p3750
sg3738
I1387439400
sba(iflightmod
Flight
p3751
(dp3752
g3729
S'Rome'
p3753
sg3731
I1387448100
sg3732
S'A320'
p3754
sg3734
S'AZ1463'
p3755
sg3736
S'Alitalia'
p3756
sg3738
I1387444200
sba(iflightmod
Flight
p3757
(dp3758
g3729
S'Madrid'
p3759
sg3731
I1387448400
sg3732
S'A321'
p3760
sg3734
S'IB3242'
p3761
sg3736
S'Iberia'
p3762
sg3738
I1387439400
sba(iflightmod
Flight
p3763
(dp3764
g3729
S'Berlin'
p3765
sg3731
I1387449600
sg3732
S'A319'
p3766
sg3734
S'U24651'
p3767
sg3736
S'EasyJet'
p3768
sg3738
I1387443300
sba(iflightmod
Flight
p3769
(dp3770
g3729
S'Amsterdam'
p3771
sg3731
I1387449900
sg3732
S'E190'
p3772
sg3734
S'KL1653'
p3773
sg3736
S'KLM'
p3774
sg3738
I1387443300
sba(iflightmod
Flight
p3775
(dp3776
g3729
S'Brussels'
p3777
sg3731
I1387449900
sg3732
S'AR1'
p3778
sg3734
S'SN3201'
p3779
sg3736
S'Brussels Airlines'
p3780
sg3738
I1387443900
sba(iflightmod
Flight
p3781
(dp3782
g3729
S'London'
p3783
sg3731
I1387449900
sg3732
S'A319'
p3784
sg3734
S'U25263'
p3785
sg3736
S'EasyJet'
p3786
sg3738
I1387442400
sba(iflightmod
Flight
p3787
(dp3788
g3729
S'Lisbon'
p3789
sg3731
I1387449900
sg3732
S'A319'
p3790
sg3734
S'TP874'
p3791
sg3736
S'TAP Portugal'
p3792
sg3738
I1387439400
sba(iflightmod
Flight
p3793
(dp3794
S'origin'
p3795
S'Frankfurt'
p3796
sS'arrival'
p3797
I1387450200
sS'aircraft'
p3798
S'B733'
p3799
sS'flight'
p3800
S'LH326'
p3801
sS'airline'
p3802
S'Lufthansa'
p3803
sS'departure'
p3804
I1387445400
sba(iflightmod
Flight
p3805
(dp3806
S'origin'
p3807
S'Munich'
p3808
sS'arrival'
p3809
I1387436700
sS'aircraft'
p3810
S'E190'
p3811
sS'flight'
p3812
S'EN8200'
p3813
sS'airline'
p3814
S'Air Dolomiti'
p3815
sS'departure'
p3816
I1387433100
sba(iflightmod
Flight
p3817
(dp3818
g3807
S'Zurich'
p3819
sg3809
I1387438800
sg3810
S'RJ1H'
p3820
sg3812
S'LX1660'
p3821
sg3814
S'Swiss'
p3822
sg3816
I1387434600
sba(iflightmod
Flight
p3823
(dp3824
g3807
S'London'
p3825
sg3809
I1387450200
sg3810
S'A319'
p3826
sg3812
S'BA578'
p3827
sg3814
S'British Airways'
p3828
sg3816
I1387442700
sba(iflightmod
Flight
p3829
(dp3830
S'origin'
p3831
S'Rome'
p3832
sS'arrival'
p3833
I1387441500
sS'aircraft'
p3834
S'E170'
p3835
sS'flight'
p3836
S'AZ1471'
p3837
sS'airline'
p3838
S'Alitalia'
p3839
sS'departure'
p3840
I1387437600
sba(iflightmod
Flight
p3841
(dp3842
g3831
S'Madrid'
p3843
sg3833
I1387448400
sg3834
S'A320'
p3844
sg3836
S'IB3242'
p3845
sg3838
S'Iberia'
p3846
sg3840
I1387439400
sba(iflightmod
Flight
p3847
(dp3848
g3831
S'Moscow'
p3849
sg3833
I1387450200
sg3834
S'A320'
p3850
sg3836
S'SU2596'
p3851
sg3838
S'Aeroflot'
p3852
sg3840
I1387437900
sba(iflightmod
Flight
p3853
(dp3854
g3831
S'Paris'
p3855
sg3833
I1387450800
sg3834
S'A318'
p3856
sg3836
S'AF1426'
p3857
sg3838
S'Air France'
p3858
sg3840
I1387444800
sba(iflightmod
Flight
p3859
(dp3860
g3831
S'Toulouse'
p3861
sg3833
I1387450800
sg3834
S'A319'
p3862
sg3836
S'AF4374'
p3863
sg3838
S'Air France'
p3864
sg3840
I1387444800
sba(iflightmod
Flight
p3865
(dp3866
S'origin'
p3867
S'Reggio Calabria'
p3868
sS'arrival'
p3869
I1387443300
sS'aircraft'
p3870
S'B712'
p3871
sS'flight'
p3872
S'V71249'
p3873
sS'airline'
p3874
S'Volotea'
p3875
sS'departure'
p3876
I1387437600
sba(iflightmod
Flight
p3877
(dp3878
g3867
S'Lyon'
p3879
sg3869
I1387444500
sg3870
S'CRJ1'
p3880
sg3872
S'A54522'
p3881
sg3874
S'HOP!'
p3882
sg3876
I1387439700
sba(iflightmod
Flight
p3883
(dp3884
g3867
S'Frankfurt'
p3885
sg3869
I1387445100
sg3870
S'A320'
p3886
sg3872
S'LH324'
p3887
sg3874
S'Lufthansa'
p3888
sg3876
I1387440300
sba(iflightmod
Flight
p3889
(dp3890
g3867
S'Nantes'
p3891
sg3869
I1387451400
sg3870
S'B717'
p3892
sg3872
S'V72212'
p3893
sg3874
S'Volotea'
p3894
sg3876
I1387444500
sba(iflightmod
Flight
p3895
(dp3896
g3867
S'Stuttgart'
p3897
sg3869
I1387451400
sg3870
S'DH4'
p3898
sg3872
S'AB8984'
p3899
sg3874
S'Air Berlin'
p3900
sg3876
I1387447200
sba(iflightmod
Flight
p3901
(dp3902
g3867
S'Barcelona'
p3903
sg3869
I1387452000
sg3870
S'A320'
p3904
sg3872
S'VY6400'
p3905
sg3874
S'Vueling'
p3906
sg3876
I1387445700
sba(iflightmod
Flight
p3907
(dp3908
g3867
S'Munich'
p3909
sg3869
I1387452600
sg3870
S'E95'
p3910
sg3872
S'EN8202'
p3911
sg3874
S'Air Dolomiti'
p3912
sg3876
I1387449000
sba(iflightmod
Flight
p3913
(dp3914
S'origin'
p3915
S'Brussels'
p3916
sS'arrival'
p3917
I1387449900
sS'aircraft'
p3918
S'RJ1H'
p3919
sS'flight'
p3920
S'SN3201'
p3921
sS'airline'
p3922
S'Brussels Airlines'
p3923
sS'departure'
p3924
I1387443900
sba(iflightmod
Flight
p3925
(dp3926
g3915
S'Paris'
p3927
sg3917
I1387454100
sg3918
S'A319'
p3928
sg3920
S'U23793'
p3929
sg3922
S'EasyJet'
p3930
sg3924
I1387448100
sba(iflightmod
Flight
p3931
(dp3932
g3915
S'Geneva'
p3933
sg3917
I1387454700
sg3918
S'A319'
p3934
sg3920
S'U21327'
p3935
sg3922
S'EasyJet'
p3936
sg3924
I1387450200
sba(iflightmod
Flight
p3937
(dp3938
g3915
S'Istanbul'
p3939
sg3917
I1387455600
sg3918
S'B738'
p3940
sg3920
S'TK1871'
p3941
sg3922
S'Turkish Airlines'
p3942
sg3924
I1387446600
sba(iflightmod
Flight
p3943
(dp3944
g3915
S'Rome'
p3945
sg3917
I1387456500
sg3918
S'A319'
p3946
sg3920
S'AZ1465'
p3947
sg3922
S'Alitalia'
p3948
sg3924
I1387452600
sba(iflightmod
Flight
p3949
(dp3950
g3915
S'Frankfurt'
p3951
sg3917
I1387456500
sg3918
S'32A'
p3952
sg3920
S'LH328'
p3953
sg3922
S'Lufthansa'
p3954
sg3924
I1387451700
sba(iflightmod
Flight
p3955
(dp3956
g3915
S'Doha'
p3957
sg3917
I1387456800
sg3918
S'A320'
p3958
sg3920
S'QR129'
p3959
sg3922
S'Qatar Airways'
p3960
sg3924
I1387433100
sba(iflightmod
Flight
p3961
(dp3962
g3915
S'Dubai'
p3963
sg3917
I1387457100
sg3918
S'B77W'
p3964
sg3920
S'EK135'
p3965
sg3922
S'Emirates'
p3966
sg3924
I1387433100
sba(iflightmod
Flight
p3967
(dp3968
g3915
S'Zurich'
p3969
sg3917
I1387458000
sg3918
S'A320'
p3970
sg3920
S'LX1662'
p3971
sg3922
S'Swiss'
p3972
sg3924
I1387454100
sba(iflightmod
Flight
p3973
(dp3974
S'origin'
p3975
S'Nantes'
p3976
sS'arrival'
p3977
I1387451400
sS'aircraft'
p3978
S'B712'
p3979
sS'flight'
p3980
S'V72212'
p3981
sS'airline'
p3982
S'Volotea'
p3983
sS'departure'
p3984
I1387444500
sba(iflightmod
Flight
p3985
(dp3986
g3975
S'Stuttgart'
p3987
sg3977
I1387451400
sg3978
S'DH8D'
p3988
sg3980
S'AB8984'
p3989
sg3982
S'Air Berlin'
p3990
sg3984
I1387447200
sba(iflightmod
Flight
p3991
(dp3992
g3975
S'Munich'
p3993
sg3977
I1387452600
sg3978
S'E190'
p3994
sg3980
S'EN8202'
p3995
sg3982
S'Air Dolomiti'
p3996
sg3984
I1387449000
sba(iflightmod
Flight
p3997
(dp3998
g3975
S'Catania'
p3999
sg3977
I1387459200
sg3978
S'B717'
p4000
sg3980
S'V71263'
p4001
sg3982
S'Volotea'
p4002
sg3984
I1387452600
sba(iflightmod
Flight
p4003
(dp4004
g3975
S'Brindisi'
p4005
sg3977
I1387459800
sg3978
S'B717'
p4006
sg3980
S'V71247'
p4007
sg3982
S'Volotea'
p4008
sg3984
I1387454400
sba(iflightmod
Flight
p4009
(dp4010
g3975
S'Palermo'
p4011
sg3977
I1387460100
sg3978
S'A320'
p4012
sg3980
S'AP735'
p4013
sg3982
S'Air One'
p4014
sg3984
I1387454700
sba(iflightmod
Flight
p4015
(dp4016
g3975
S'Paris'
p4017
sg3977
I1387460400
sg3978
S'A319'
p4018
sg3980
S'AF1726'
p4019
sg3982
S'Air France'
p4020
sg3984
I1387454400
sba(iflightmod
Flight
p4021
(dp4022
S'origin'
p4023
S'Frankfurt'
p4024
sS'arrival'
p4025
I1387456500
sS'aircraft'
p4026
S'A320'
p4027
sS'flight'
p4028
S'LH328'
p4029
sS'airline'
p4030
S'Lufthansa'
p4031
sS'departure'
p4032
I1387451700
sba(iflightmod
Flight
p4033
(dp4034
g4023
S'Naples'
p4035
sg4025
I1387462200
sg4026
S'A319'
p4036
sg4028
S'U2995'
p4037
sg4030
S'EasyJet'
p4038
sg4032
I1387457700
sba(iflightmod
Flight
p4039
(dp4040
g4023
S'London'
p4041
sg4025
I1387463100
sg4026
S'A319'
p4042
sg4028
S'BA2584'
p4043
sg4030
S'British Airways'
p4044
sg4032
I1387455900
sba(iflightmod
Flight
p4045
(dp4046
g4023
S'Rome'
p4047
sg4025
I1387464000
sg4026
S'A320'
p4048
sg4028
S'AZ1475'
p4049
sg4030
S'Alitalia'
p4050
sg4032
I1387460100
sba(iflightmod
Flight
p4051
(dp4052
g4023
S'Bordeaux'
p4053
sg4025
I1387464600
sg4026
S'B717'
p4054
sg4028
S'V71347'
p4055
sg4030
S'Volotea'
p4056
sg4032
I1387458000
sba(iflightmod
Flight
p4057
(dp4058
g4023
S'Lyon'
p4059
sg4025
I1387466100
sg4026
S'A319'
p4060
sg4028
S'U24465'
p4061
sg4030
S'EasyJet'
p4062
sg4032
I1387461600
sba(iflightmod
Flight
p4063
(dp4064
g4023
S'Tirana'
p4065
sg4025
I1387466700
sg4026
S'A320'
p4066
sg4028
S'AP751'
p4067
sg4030
S'Air One'
p4068
sg4032
I1387460700
sba(iflightmod
Flight
p4069
(dp4070
g4023
S'Munich'
p4071
sg4025
I1387467300
sg4026
S'E95'
p4072
sg4028
S'EN8204'
p4073
sg4030
S'Air Dolomiti'
p4074
sg4032
I1387463700
sba(iflightmod
Flight
p4075
(dp4076
g4023
S'Lyon'
p4077
sg4025
I1387468200
sg4026
S'E145'
p4078
sg4028
S'A54526'
p4079
sg4030
S'HOP!'
p4080
sg4032
I1387463400
sba(iflightmod
Flight
p4081
(dp4082
g4023
S'Amsterdam'
p4083
sg4025
I1387468500
sg4026
S'B737'
p4084
sg4028
S'KL1655'
p4085
sg4030
S'KLM'
p4086
sg4032
I1387462200
sba(iflightmod
Flight
p4087
(dp4088
g4023
S'Southend'
p4089
sg4025
I1387468800
sg4026
S'A319'
p4090
sg4028
S'U27397'
p4091
sg4030
S'EasyJet'
p4092
sg4032
I1387461600
sba(iflightmod
Flight
p4093
(dp4094
g4023
S'London'
p4095
sg4025
I1387470600
sg4026
S'A319'
p4096
sg4028
S'U25267'
p4097
sg4030
S'EasyJet'
p4098
sg4032
I1387463100
sba(iflightmod
Flight
p4099
(dp4100
g4023
S'Paris'
p4101
sg4025
I1387470900
sg4026
S'A318'
p4102
sg4028
S'AF1226'
p4103
sg4030
S'Air France'
p4104
sg4032
I1387464900
sba(iflightmod
Flight
p4105
(dp4106
g4023
S'Istanbul'
p4107
sg4025
I1387472400
sg4026
S'B738'
p4108
sg4028
S'TK1869'
p4109
sg4030
S'Turkish Airlines'
p4110
sg4032
I1387463100
sba(iflightmod
Flight
p4111
(dp4112
S'origin'
p4113
S'Brindisi'
p4114
sS'arrival'
p4115
I1387459800
sS'aircraft'
p4116
S'B712'
p4117
sS'flight'
p4118
S'V71247'
p4119
sS'airline'
p4120
S'Volotea'
p4121
sS'departure'
p4122
I1387454400
sba(iflightmod
Flight
p4123
(dp4124
g4113
S'Frankfurt'
p4125
sg4115
I1387473000
sg4116
S'A320'
p4126
sg4118
S'LH330'
p4127
sg4120
S'Lufthansa'
p4128
sg4122
I1387468200
sba(iflightmod
Flight
p4129
(dp4130
g4113
S'Vienna'
p4131
sg4115
I1387474200
sg4116
S'DH4'
p4132
sg4118
S'OS529'
p4133
sg4120
S'Austrian Airlines'
p4134
sg4122
I1387470000
sba(iflightmod
Flight
p4135
(dp4136
g4113
S'Palermo'
p4137
sg4115
I1387474800
sg4116
S'B717'
p4138
sg4118
S'V71219'
p4139
sg4120
S'Volotea'
p4140
sg4122
I1387469100
sba(iflightmod
Flight
p4141
(dp4142
g4113
S'London'
p4143
sg4115
I1387475400
sg4116
S'B734'
p4144
sg4118
S'BA2586'
p4145
sg4120
S'British Airways'
p4146
sg4122
I1387468500
sba(iflightmod
Flight
p4147
(dp4148
g4113
S'Naples'
p4149
sg4115
I1387475400
sg4116
S'A319'
p4150
sg4118
S'U2997'
p4151
sg4120
S'EasyJet'
p4152
sg4122
I1387470900
sba(iflightmod
Flight
p4153
(dp4154
g4113
S'Zurich'
p4155
sg4115
I1387475400
sg4116
S'AR1'
p4156
sg4118
S'LX1664'
p4157
sg4120
S'Swiss'
p4158
sg4122
I1387471200
sba(iflightmod
Flight
p4159
(dp4160
S'origin'
p4161
S'Bordeaux'
p4162
sS'arrival'
p4163
I1387464600
sS'aircraft'
p4164
S'B712'
p4165
sS'flight'
p4166
S'V71347'
p4167
sS'airline'
p4168
S'Volotea'
p4169
sS'departure'
p4170
I1387458000
sba(iflightmod
Flight
p4171
(dp4172
g4161
S'Lamezia Terme'
p4173
sg4163
I1387475700
sg4164
S'A320'
p4174
sg4166
S'AP729'
p4175
sg4168
S'Air One'
p4176
sg4170
I1387470300
sba(iflightmod
Flight
p4177
(dp4178
g4161
S'Rome'
p4179
sg4163
I1387476300
sg4164
S'E75'
p4180
sg4166
S'AZ1467'
p4181
sg4168
S'Alitalia'
p4182
sg4170
I1387472400
sba(iflightmod
Flight
p4183
(dp4184
g4161
S'Madrid'
p4185
sg4163
I1387476900
sg4164
S'A321'
p4186
sg4166
S'IB3246'
p4187
sg4168
S'Iberia'
p4188
sg4170
I1387468200
sba(iflightmod
Flight
p4189
(dp4190
g4161
S'Manchester'
p4191
sg4163
I1387476900
sg4164
S'A319'
p4192
sg4166
S'U21863'
p4193
sg4168
S'EasyJet'
p4194
sg4170
I1387467900
sba(iflightmod
Flight
p4195
(dp4196
g4161
S'Paris'
p4197
sg4163
I1387477200
sg4164
S'A320'
p4198
sg4166
S'U24295'
p4199
sg4168
S'EasyJet'
p4200
sg4170
I1387471200
sba(iflightmod
Flight
p4201
(dp4202
g4161
S'Tirana'
p4203
sg4163
I1387477800
sg4164
S'B737'
p4204
sg4166
S'BV3225'
p4205
sg4168
S'Blue Panorama Airlines'
p4206
sg4170
I1387472400
sba(iflightmod
Flight
p4207
(dp4208
S'origin'
p4209
S'Munich'
p4210
sS'arrival'
p4211
I1387467300
sS'aircraft'
p4212
S'E190'
p4213
sS'flight'
p4214
S'EN8204'
p4215
sS'airline'
p4216
S'Air Dolomiti'
p4217
sS'departure'
p4218
I1387463700
sba(iflightmod
Flight
p4219
(dp4220
g4209
S'Barcelona'
p4221
sg4211
I1387478700
sg4212
S'A320'
p4222
sg4214
S'VY6402'
p4223
sg4216
S'Vueling'
p4224
sg4218
I1387472400
sba(iflightmod
Flight
p4225
(dp4226
g4209
S'Paris'
p4227
sg4211
I1387479300
sg4212
S'B738'
p4228
sg4214
S'TO3342'
p4229
sg4216
S'Transavia France'
p4230
sg4218
I1387473000
sba(iflightmod
Flight
p4231
(dp4232
g4209
S'Rome'
p4233
sg4211
I1387479900
sg4212
S'32S'
p4234
sg4214
S'AZ1481'
p4235
sg4216
S'Alitalia'
p4236
sg4218
I1387476000
sba(iflightmod
Flight
p4237
(dp4238
S'origin'
p4239
S'Madrid'
p4240
sS'arrival'
p4241
I1387476900
sS'aircraft'
p4242
S'A320'
p4243
sS'flight'
p4244
S'IB3246'
p4245
sS'airline'
p4246
S'Iberia'
p4247
sS'departure'
p4248
I1387468200
sba(iflightmod
Flight
p4249
(dp4250
g4239
S'Paris'
p4251
sg4241
I1387481400
sg4242
S'A319'
p4252
sg4244
S'U23795'
p4253
sg4246
S'EasyJet'
p4254
sg4248
I1387475400
sba(iflightmod
Flight
p4255
(dp4256
g4239
S'Mulhouse'
p4257
sg4241
I1387481700
sg4242
S'A319'
p4258
sg4244
S'U21163'
p4259
sg4246
S'EasyJet'
p4260
sg4248
I1387477800
sba(iflightmod
Flight
p4261
(dp4262
g4239
S'Rome'
p4263
sg4241
I1387484700
sg4242
S'A320'
p4264
sg4244
S'AZ1483'
p4265
sg4246
S'Alitalia'
p4266
sg4248
I1387480800
sba(iflightmod
Flight
p4267
(dp4268
g4239
S'Vienna'
p4269
sg4241
I1387485900
sg4242
S'DH4'
p4270
sg4244
S'OS527'
p4271
sg4246
S'Austrian Airlines'
p4272
sg4248
I1387481700
sba(iflightmod
Flight
p4273
(dp4274
S'origin'
p4275
S'Zurich'
p4276
sS'arrival'
p4277
I1387475400
sS'aircraft'
p4278
S'RJ1H'
p4279
sS'flight'
p4280
S'LX1664'
p4281
sS'airline'
p4282
S'Swiss'
p4283
sS'departure'
p4284
I1387471200
sba(iflightmod
Flight
p4285
(dp4286
g4275
S'Rome'
p4287
sg4277
I1387476300
sg4278
S'E170'
p4288
sg4280
S'AZ1467'
p4289
sg4282
S'Alitalia'
p4290
sg4284
I1387472400
sba(iflightmod
Flight
p4291
(dp4292
g4275
S'Moscow'
p4293
sg4277
I1387486800
sg4278
S'A319'
p4294
sg4280
S'SU2422'
p4295
sg4282
S'Aeroflot'
p4296
sg4284
I1387474500
sba(iflightmod
Flight
p4297
(dp4298
g4275
S'Paris'
p4299
sg4277
I1387487400
sg4278
S'A318'
p4300
sg4280
S'AF1326'
p4301
sg4282
S'Air France'
p4302
sg4284
I1387481400
sba(iflightmod
Flight
p4303
(dp4304
g4275
S'Amsterdam'
p4305
sg4277
I1387488000
sg4278
S'B737'
p4306
sg4280
S'KL1659'
p4307
sg4282
S'KLM'
p4308
sg4284
I1387481700
sba(iflightmod
Flight
p4309
(dp4310
g4275
S'Rome'
p4311
sg4277
I1387488300
sg4278
S'A319'
p4312
sg4280
S'AZ1473'
p4313
sg4282
S'Alitalia'
p4314
sg4284
I1387484400
sba(iflightmod
Flight
p4315
(dp4316
g4275
S'Munich'
p4317
sg4277
I1387488300
sg4278
S'E95'
p4318
sg4280
S'EN8206'
p4319
sg4282
S'Air Dolomiti'
p4320
sg4284
I1387484700
sba(iflightmod
Flight
p4321
(dp4322
S'origin'
p4323
S'Tirana'
p4324
sS'arrival'
p4325
I1387477800
sS'aircraft'
p4326
S'B734'
p4327
sS'flight'
p4328
S'BV3225'
p4329
sS'airline'
p4330
S'Blue Panorama Airlines'
p4331
sS'departure'
p4332
I1387472400
sba(iflightmod
Flight
p4333
(dp4334
g4323
S'Brussels'
p4335
sg4325
I1387488900
sg4326
S'AR1'
p4336
sg4328
S'SN3207'
p4337
sg4330
S'Brussels Airlines'
p4338
sg4332
I1387482600
sba(iflightmod
Flight
p4339
(dp4340
g4323
S'Frankfurt'
p4341
sg4325
I1387491300
sg4326
S'A321'
p4342
sg4328
S'LH332'
p4343
sg4330
S'Lufthansa'
p4344
sg4332
I1387486500
sba(iflightmod
Flight
p4345
(dp4346
g4323
S'Catania'
p4347
sg4325
I1387491900
sg4326
S'A320'
p4348
sg4328
S'AP872'
p4349
sg4330
S'Air One'
p4350
sg4332
I1387485900
sba(iflightmod
Flight
p4351
(dp4352
g4323
S'Catania'
p4353
sg4325
I1387493100
sg4326
S'B717'
p4354
sg4328
S'V71265'
p4355
sg4330
S'Volotea'
p4356
sg4332
I1387486500
sba(iflightmod
Flight
p4357
(dp4358
S'origin'
p4359
S'Rome'
p4360
sS'arrival'
p4361
I1387479900
sS'aircraft'
p4362
S'A319'
p4363
sS'flight'
p4364
S'AZ1481'
p4365
sS'airline'
p4366
S'Alitalia'
p4367
sS'departure'
p4368
I1387476000
sba(iflightmod
Flight
p4369
(dp4370
g4359
S'Bilbao'
p4371
sg4361
I1387494300
sg4362
S'B717'
p4372
sg4364
S'V71345'
p4373
sg4366
S'Volotea'
p4374
sg4368
I1387486500
sba(iflightmod
Flight
p4375
(dp4376
g4359
S'Tirana'
p4377
sg4361
I1387520700
sg4362
S'A319'
p4378
sg4364
S'LZ675'
p4379
sg4366
S'Belle Air'
p4380
sg4368
I1387515600
sba(iflightmod
Flight
p4381
(dp4382
g4359
S'Chisinau'
p4383
sg4361
I1387522800
sg4362
S'B733'
p4384
sg4364
S'V3260'
p4385
sg4366
S'Carpatair'
p4386
sg4368
I1387514700
sba(iflightmod
Flight
p4387
(dp4388
g4359
S'Munich'
p4389
sg4361
I1387523100
sg4362
S'E95'
p4390
sg4364
S'EN8200'
p4391
sg4366
S'Air Dolomiti'
p4392
sg4368
I1387519500
sba(iflightmod
Flight
p4393
(dp4394
g4359
S'Paris'
p4395
sg4361
I1387523700
sg4362
S'B738'
p4396
sg4364
S'TO3342'
p4397
sg4366
S'Transavia France'
p4398
sg4368
I1387517400
sba(iflightmod
Flight
p4399
(dp4400
g4359
S'Tirana'
p4401
sg4361
I1387524600
sg4362
S'B737'
p4402
sg4364
S'BV3225'
p4403
sg4366
S'Blue Panorama Airlines'
p4404
sg4368
I1387519200
sba(iflightmod
Flight
p4405
(dp4406
g4359
S'Zurich'
p4407
sg4361
I1387525200
sg4362
S'AR1'
p4408
sg4364
S'LX1660'
p4409
sg4366
S'Swiss'
p4410
sg4368
I1387521000
sba(iflightmod
Flight
p4411
(dp4412
g4359
S'Paris'
p4413
sg4361
I1387526400
sg4362
S'A319'
p4414
sg4364
S'AF1126'
p4415
sg4366
S'Air France'
p4416
sg4368
I1387520400
sba(iflightmod
Flight
p4417
(dp4418
g4359
S'Paris'
p4419
sg4361
I1387526400
sg4362
S'A320'
p4420
sg4364
S'U24291'
p4421
sg4366
S'EasyJet'
p4422
sg4368
I1387520400
sba(iflightmod
Flight
p4423
(dp4424
S'origin'
p4425
S'Rome'
p4426
sS'arrival'
p4427
I1387527900
sS'aircraft'
p4428
S'E190'
p4429
sS'flight'
p4430
S'AZ1471'
p4431
sS'airline'
p4432
S'Alitalia'
p4433
sS'departure'
p4434
I1387524000
sba(iflightmod
Flight
p4435
(dp4436
g4425
S'Istanbul'
p4437
sg4427
I1387527900
sg4428
S'A321'
p4438
sg4430
S'TK1867'
p4439
sg4432
S'Turkish Airlines'
p4440
sg4434
I1387518900
sba(iflightmod
Flight
p4441
(dp4442
g4425
S'Naples'
p4443
sg4427
I1387529700
sg4428
S'A319'
p4444
sg4430
S'U2991'
p4445
sg4432
S'EasyJet'
p4446
sg4434
I1387525200
sba(iflightmod
Flight
p4447
(dp4448
g4425
S'Cagliari'
p4449
sg4427
I1387530300
sg4428
S'B717'
p4450
sg4430
S'V71231'
p4451
sg4432
S'Volotea'
p4452
sg4434
I1387524900
sba(iflightmod
Flight
p4453
(dp4454
g4425
S'Lyon'
p4455
sg4427
I1387530900
sg4428
S'CR7'
p4456
sg4430
S'A54522'
p4457
sg4432
S'HOP!'
p4458
sg4434
I1387526100
sba(iflightmod
Flight
p4459
(dp4460
S'origin'
p4461
S'Rome'
p4462
sS'arrival'
p4463
I1387488300
sS'aircraft'
p4464
S'A321'
p4465
sS'flight'
p4466
S'AZ1473'
p4467
sS'airline'
p4468
S'Alitalia'
p4469
sS'departure'
p4470
I1387484400
sba(iflightmod
Flight
p4471
(dp4472
g4461
S'Munich'
p4473
sg4463
I1387488300
sg4464
S'E190'
p4474
sg4466
S'EN8206'
p4475
sg4468
S'Air Dolomiti'
p4476
sg4470
I1387484700
sba(iflightmod
Flight
p4477
(dp4478
g4461
S'Brussels'
p4479
sg4463
I1387488900
sg4464
S'RJ1H'
p4480
sg4466
S'SN3207'
p4481
sg4468
S'Brussels Airlines'
p4482
sg4470
I1387482600
sba(iflightmod
Flight
p4483
(dp4484
g4461
S'Vienna'
p4485
sg4463
I1387531200
sg4464
S'DH4'
p4486
sg4466
S'OS521'
p4487
sg4468
S'Austrian Airlines'
p4488
sg4470
I1387527000
sba(iflightmod
Flight
p4489
(dp4490
S'origin'
p4491
S'Bilbao'
p4492
sS'arrival'
p4493
I1387494300
sS'aircraft'
p4494
S'B712'
p4495
sS'flight'
p4496
S'V71345'
p4497
sS'airline'
p4498
S'Volotea'
p4499
sS'departure'
p4500
I1387486500
sba(iflightmod
Flight
p4501
(dp4502
g4491
S'Frankfurt'
p4503
sg4493
I1387531500
sg4494
S'32A'
p4504
sg4496
S'LH324'
p4505
sg4498
S'Lufthansa'
p4506
sg4500
I1387526700
sba(iflightmod
Flight
p4507
(dp4508
g4491
S'Catania'
p4509
sg4493
I1387532100
sg4494
S'A320'
p4510
sg4496
S'AP870'
p4511
sg4498
S'Air One'
p4512
sg4500
I1387526100
sba(iflightmod
Flight
p4513
(dp4514
g4491
S'Rome'
p4515
sg4493
I1387534500
sg4494
S'A320'
p4516
sg4496
S'AZ1463'
p4517
sg4498
S'Alitalia'
p4518
sg4500
I1387530600
sba(iflightmod
Flight
p4519
(dp4520
g4491
S'London'
p4521
sg4493
I1387534500
sg4494
S'B734'
p4522
sg4496
S'BA2582'
p4523
sg4498
S'British Airways'
p4524
sg4500
I1387527000
sba(iflightmod
Flight
p4525
(dp4526
g4491
S'Madrid'
p4527
sg4493
I1387534800
sg4494
S'A321'
p4528
sg4496
S'IB3242'
p4529
sg4498
S'Iberia'
p4530
sg4500
I1387525800
sba(iflightmod
Flight
p4531
(dp4532
g4491
S'Berlin'
p4533
sg4493
I1387536000
sg4494
S'A319'
p4534
sg4496
S'U24651'
p4535
sg4498
S'EasyJet'
p4536
sg4500
I1387529700
sba(iflightmod
Flight
p4537
(dp4538
g4491
S'Amsterdam'
p4539
sg4493
I1387536300
sg4494
S'E190'
p4540
sg4496
S'KL1653'
p4541
sg4498
S'KLM'
p4542
sg4500
I1387529700
sba(iflightmod
Flight
p4543
(dp4544
S'origin'
p4545
S'Catania'
p4546
sS'arrival'
p4547
I1387493100
sS'aircraft'
p4548
S'B712'
p4549
sS'flight'
p4550
S'V71265'
p4551
sS'airline'
p4552
S'Volotea'
p4553
sS'departure'
p4554
I1387486500
sba(iflightmod
Flight
p4555
(dp4556
g4545
S'Brussels'
p4557
sg4547
I1387536300
sg4548
S'AR1'
p4558
sg4550
S'SN3201'
p4559
sg4552
S'Brussels Airlines'
p4560
sg4554
I1387530300
sba(iflightmod
Flight
p4561
(dp4562
g4545
S'London'
p4563
sg4547
I1387536300
sg4548
S'A319'
p4564
sg4550
S'U25263'
p4565
sg4552
S'EasyJet'
p4566
sg4554
I1387528800
sba(iflightmod
Flight
p4567
(dp4568
S'origin'
p4569
S'Lisbon'
p4570
sS'arrival'
p4571
I1387536300
sS'aircraft'
p4572
S'F100'
p4573
sS'flight'
p4574
S'TP874'
p4575
sS'airline'
p4576
S'TAP Portugal'
p4577
sS'departure'
p4578
I1387525800
sba(iflightmod
Flight
p4579
(dp4580
g4569
S'Frankfurt'
p4581
sg4571
I1387536600
sg4572
S'B733'
p4582
sg4574
S'LH326'
p4583
sg4576
S'Lufthansa'
p4584
sg4578
I1387531800
sba(iflightmod
Flight
p4585
(dp4586
S'origin'
p4587
S'Munich'
p4588
sS'arrival'
p4589
I1387523100
sS'aircraft'
p4590
S'E190'
p4591
sS'flight'
p4592
S'EN8200'
p4593
sS'airline'
p4594
S'Air Dolomiti'
p4595
sS'departure'
p4596
I1387519500
sba(iflightmod
Flight
p4597
(dp4598
g4587
S'Tirana'
p4599
sg4589
I1387524600
sg4590
S'B734'
p4600
sg4592
S'BV3225'
p4601
sg4594
S'Blue Panorama Airlines'
p4602
sg4596
I1387519200
sba(iflightmod
Flight
p4603
(dp4604
g4587
S'Zurich'
p4605
sg4589
I1387525200
sg4590
S'RJ1H'
p4606
sg4592
S'LX1660'
p4607
sg4594
S'Swiss'
p4608
sg4596
I1387521000
sba(iflightmod
Flight
p4609
(dp4610
g4587
S'London'
p4611
sg4589
I1387536600
sg4590
S'A319'
p4612
sg4592
S'BA578'
p4613
sg4594
S'British Airways'
p4614
sg4596
I1387529100
sba(iflightmod
Flight
p4615
(dp4616
S'origin'
p4617
S'Moscow'
p4618
sS'arrival'
p4619
I1387536600
sS'aircraft'
p4620
S'A321'
p4621
sS'flight'
p4622
S'SU2596'
p4623
sS'airline'
p4624
S'Aeroflot'
p4625
sS'departure'
p4626
I1387524300
sba(iflightmod
Flight
p4627
(dp4628
g4617
S'Paris'
p4629
sg4619
I1387537200
sg4620
S'A318'
p4630
sg4622
S'AF1426'
p4631
sg4624
S'Air France'
p4632
sg4626
I1387531200
sba(iflightmod
Flight
p4633
(dp4634
g4617
S'Dusseldorf'
p4635
sg4619
I1387537500
sg4620
S'DH4'
p4636
sg4622
S'AB8862'
p4637
sg4624
S'Air Berlin'
p4638
sg4626
I1387531200
sba(iflightmod
Flight
p4639
(dp4640
g4617
S'Barcelona'
p4641
sg4619
I1387538400
sg4620
S'A320'
p4642
sg4622
S'VY6400'
p4643
sg4624
S'Vueling'
p4644
sg4626
I1387532100
sba(iflightmod
Flight
p4645
(dp4646
g4617
S'Munich'
p4647
sg4619
I1387539000
sg4620
S'E95'
p4648
sg4622
S'EN8202'
p4649
sg4624
S'Air Dolomiti'
p4650
sg4626
I1387535400
sba(iflightmod
Flight
p4651
(dp4652
S'origin'
p4653
S'Cagliari'
p4654
sS'arrival'
p4655
I1387530300
sS'aircraft'
p4656
S'B712'
p4657
sS'flight'
p4658
S'V71231'
p4659
sS'airline'
p4660
S'Volotea'
p4661
sS'departure'
p4662
I1387524900
sba(iflightmod
Flight
p4663
(dp4664
g4653
S'Lyon'
p4665
sg4655
I1387530900
sg4656
S'CRJ7'
p4666
sg4658
S'A54522'
p4667
sg4660
S'HOP!'
p4668
sg4662
I1387526100
sba(iflightmod
Flight
p4669
(dp4670
g4653
S'Frankfurt'
p4671
sg4655
I1387531500
sg4656
S'A320'
p4672
sg4658
S'LH324'
p4673
sg4660
S'Lufthansa'
p4674
sg4662
I1387526700
sba(iflightmod
Flight
p4675
(dp4676
g4653
S'Istanbul'
p4677
sg4655
I1387542000
sg4656
S'A321'
p4678
sg4658
S'TK1871'
p4679
sg4660
S'Turkish Airlines'
p4680
sg4662
I1387533000
sba(iflightmod
Flight
p4681
(dp4682
g4653
S'Rome'
p4683
sg4655
I1387542900
sg4656
S'32S'
p4684
sg4658
S'AZ1465'
p4685
sg4660
S'Alitalia'
p4686
sg4662
I1387539000
sba(iflightmod
Flight
p4687
(dp4688
g4653
S'Frankfurt'
p4689
sg4655
I1387542900
sg4656
S'A319'
p4690
sg4658
S'LH328'
p4691
sg4660
S'Lufthansa'
p4692
sg4662
I1387538100
sba(iflightmod
Flight
p4693
(dp4694
g4653
S'Doha'
p4695
sg4655
I1387543200
sg4656
S'A320'
p4696
sg4658
S'QR129'
p4697
sg4660
S'Qatar Airways'
p4698
sg4662
I1387519500
sba(iflightmod
Flight
p4699
(dp4700
S'origin'
p4701
S'Brussels'
p4702
sS'arrival'
p4703
I1387536300
sS'aircraft'
p4704
S'RJ1H'
p4705
sS'flight'
p4706
S'SN3201'
p4707
sS'airline'
p4708
S'Brussels Airlines'
p4709
sS'departure'
p4710
I1387530300
sba(iflightmod
Flight
p4711
(dp4712
g4701
S'Dubai'
p4713
sg4703
I1387543500
sg4704
S'B77W'
p4714
sg4706
S'EK135'
p4715
sg4708
S'Emirates'
p4716
sg4710
I1387519500
sba(iflightmod
Flight
p4717
(dp4718
g4701
S'Zurich'
p4719
sg4703
I1387544400
sg4704
S'A320'
p4720
sg4706
S'LX1662'
p4721
sg4708
S'Swiss'
p4722
sg4710
I1387540500
sba(iflightmod
Flight
p4723
(dp4724
g4701
S'Paris'
p4725
sg4703
I1387544700
sg4704
S'A319'
p4726
sg4706
S'U23793'
p4727
sg4708
S'EasyJet'
p4728
sg4710
I1387538700
sba(iflightmod
Flight
p4729
(dp4730
g4701
S'Berlin'
p4731
sg4703
I1387545300
sg4704
S'73G'
p4732
sg4706
S'AB8990'
p4733
sg4708
S'Air Berlin'
p4734
sg4710
I1387539600
sba(iflightmod
Flight
p4735
(dp4736
g4701
S'London'
p4737
sg4703
I1387545600
sg4704
S'E170'
p4738
sg4706
S'BA8479'
p4739
sg4708
S'British Airways'
p4740
sg4710
I1387538100
sba(iflightmod
Flight
p4741
(dp4742
g4701
S'Catania'
p4743
sg4703
I1387546200
sg4704
S'B717'
p4744
sg4706
S'V71263'
p4745
sg4708
S'Volotea'
p4746
sg4710
I1387539600
sba(iflightmod
Flight
p4747
(dp4748
S'origin'
p4749
S'Dusseldorf'
p4750
sS'arrival'
p4751
I1387537500
sS'aircraft'
p4752
S'DH8D'
p4753
sS'flight'
p4754
S'AB8862'
p4755
sS'airline'
p4756
S'Air Berlin'
p4757
sS'departure'
p4758
I1387531200
sba(iflightmod
Flight
p4759
(dp4760
g4749
S'Munich'
p4761
sg4751
I1387539000
sg4752
S'E190'
p4762
sg4754
S'EN8202'
p4763
sg4756
S'Air Dolomiti'
p4764
sg4758
I1387535400
sba(iflightmod
Flight
p4765
(dp4766
g4749
S'Palermo'
p4767
sg4751
I1387546200
sg4752
S'B717'
p4768
sg4754
S'V71219'
p4769
sg4756
S'Volotea'
p4770
sg4758
I1387540500
sba(iflightmod
Flight
p4771
(dp4772
g4749
S'Prague'
p4773
sg4751
I1387546500
sg4752
S'A320'
p4774
sg4754
S'AP753'
p4775
sg4756
S'Air One'
p4776
sg4758
I1387541400
sba(iflightmod
Flight
p4777
(dp4778
g4749
S'Paris'
p4779
sg4751
I1387546800
sg4752
S'A319'
p4780
sg4754
S'AF1726'
p4781
sg4756
S'Air France'
p4782
sg4758
I1387540800
sba(iflightmod
Flight
p4783
(dp4784
g4749
S'Amsterdam'
p4785
sg4751
I1387547700
sg4752
S'B738'
p4786
sg4754
S'HV5495'
p4787
sg4756
S'Transavia'
p4788
sg4758
I1387541400
sba(iflightmod
Flight
p4789
(dp4790
S'origin'
p4791
S'Rome'
p4792
sS'arrival'
p4793
I1387542900
sS'aircraft'
p4794
S'A319'
p4795
sS'flight'
p4796
S'AZ1465'
p4797
sS'airline'
p4798
S'Alitalia'
p4799
sS'departure'
p4800
I1387539000
sba(iflightmod
Flight
p4801
(dp4802
g4791
S'Naples'
p4803
sg4793
I1387548600
sg4794
S'A319'
p4804
sg4796
S'U2995'
p4805
sg4798
S'EasyJet'
p4806
sg4800
I1387544100
sba(iflightmod
Flight
p4807
(dp4808
g4791
S'London'
p4809
sg4793
I1387549500
sg4794
S'B734'
p4810
sg4796
S'BA2584'
p4811
sg4798
S'British Airways'
p4812
sg4800
I1387542300
sba(iflightmod
Flight
p4813
(dp4814
g4791
S'Rome'
p4815
sg4793
I1387550400
sg4794
S'A320'
p4816
sg4796
S'AZ1475'
p4817
sg4798
S'Alitalia'
p4818
sg4800
I1387546500
sba(iflightmod
Flight
p4819
(dp4820
g4791
S'Tunis'
p4821
sg4793
I1387550400
sg4794
S'A320'
p4822
sg4796
S'TU472'
p4823
sg4798
S'Tunisair'
p4824
sg4800
I1387544400
sba(iflightmod
Flight
p4825
(dp4826
g4791
S'Geneva'
p4827
sg4793
I1387550700
sg4794
S'A319'
p4828
sg4796
S'U21327'
p4829
sg4798
S'EasyJet'
p4830
sg4800
I1387546200
sba(iflightmod
Flight
p4831
(dp4832
g4791
S'Southend'
p4833
sg4793
I1387551300
sg4794
S'A319'
p4834
sg4796
S'U27397'
p4835
sg4798
S'EasyJet'
p4836
sg4800
I1387544100
sba(iflightmod
Flight
p4837
(dp4838
g4791
S'Tirana'
p4839
sg4793
I1387553100
sg4794
S'A320'
p4840
sg4796
S'AP751'
p4841
sg4798
S'Air One'
p4842
sg4800
I1387547100
sba(iflightmod
Flight
p4843
(dp4844
g4791
S'Cologne'
p4845
sg4793
I1387553700
sg4794
S'A319'
p4846
sg4796
S'4U814'
p4847
sg4798
S'Germanwings'
p4848
sg4800
I1387548300
sba(iflightmod
Flight
p4849
(dp4850
g4791
S'Munich'
p4851
sg4793
I1387553700
sg4794
S'E95'
p4852
sg4796
S'EN8204'
p4853
sg4798
S'Air Dolomiti'
p4854
sg4800
I1387550100
sba(iflightmod
Flight
p4855
(dp4856
g4791
S'Lyon'
p4857
sg4793
I1387554600
sg4794
S'E170'
p4858
sg4796
S'A54526'
p4859
sg4798
S'HOP!'
p4860
sg4800
I1387549800
sba(iflightmod
Flight
p4861
(dp4862
g4791
S'Amsterdam'
p4863
sg4793
I1387554900
sg4794
S'B737'
p4864
sg4796
S'KL1655'
p4865
sg4798
S'KLM'
p4866
sg4800
I1387548600
sba(iflightmod
Flight
p4867
(dp4868
S'origin'
p4869
S'Catania'
p4870
sS'arrival'
p4871
I1387546200
sS'aircraft'
p4872
S'B712'
p4873
sS'flight'
p4874
S'V71263'
p4875
sS'airline'
p4876
S'Volotea'
p4877
sS'departure'
p4878
I1387539600
sba(iflightmod
Flight
p4879
(dp4880
g4869
S'Palermo'
p4881
sg4871
I1387546200
sg4872
S'B712'
p4882
sg4874
S'V71219'
p4883
sg4876
S'Volotea'
p4884
sg4878
I1387540500
sba(iflightmod
Flight
p4885
(dp4886
g4869
S'Mulhouse'
p4887
sg4871
I1387555500
sg4872
S'A319'
p4888
sg4874
S'U21163'
p4889
sg4876
S'EasyJet'
p4890
sg4878
I1387551600
sba(iflightmod
Flight
p4891
(dp4892
g4869
S'Brussels'
p4893
sg4871
I1387556700
sg4872
S'A319'
p4894
sg4874
S'SN3205'
p4895
sg4876
S'Brussels Airlines'
p4896
sg4878
I1387550700
sba(iflightmod
Flight
p4897
(dp4898
g4869
S'London'
p4899
sg4871
I1387557000
sg4872
S'A319'
p4900
sg4874
S'U25267'
p4901
sg4876
S'EasyJet'
p4902
sg4878
I1387549500
sba(iflightmod
Flight
p4903
(dp4904
g4869
S'Tirana'
p4905
sg4871
I1387557000
sg4872
S'A319'
p4906
sg4874
S'LZ673'
p4907
sg4876
S'Belle Air'
p4908
sg4878
I1387551600
sba(iflightmod
Flight
p4909
(dp4910
S'origin'
p4911
S'Paris'
p4912
sS'arrival'
p4913
I1387557300
sS'aircraft'
p4914
S'A318'
p4915
sS'flight'
p4916
S'AF1226'
p4917
sS'airline'
p4918
S'Air France'
p4919
sS'departure'
p4920
I1387551300
sba(iflightmod
Flight
p4921
(dp4922
g4911
S'Palermo'
p4923
sg4913
I1387558500
sg4914
S'B717'
p4924
sg4916
S'V71719'
p4925
sg4918
S'Volotea'
p4926
sg4920
I1387553100
sba(iflightmod
Flight
p4927
(dp4928
g4911
S'Istanbul'
p4929
sg4913
I1387558800
sg4914
S'A320'
p4930
sg4916
S'TK1869'
p4931
sg4918
S'Turkish Airlines'
p4932
sg4920
I1387549500
sba(iflightmod
Flight
p4933
(dp4934
g4911
S'Frankfurt'
p4935
sg4913
I1387559400
sg4914
S'32A'
p4936
sg4916
S'LH330'
p4937
sg4918
S'Lufthansa'
p4938
sg4920
I1387554600
sba(iflightmod
Flight
p4939
(dp4940
g4911
S'Catania'
p4941
sg4913
I1387560300
sg4914
S'B717'
p4942
sg4916
S'V71261'
p4943
sg4918
S'Volotea'
p4944
sg4920
I1387553700
sba(iflightmod
Flight
p4945
(dp4946
g4911
S'Vienna'
p4947
sg4913
I1387560600
sg4914
S'DH4'
p4948
sg4916
S'OS529'
p4949
sg4918
S'Austrian Airlines'
p4950
sg4920
I1387556400
sba(iflightmod
Flight
p4951
(dp4952
g4911
S'London'
p4953
sg4913
I1387561800
sg4914
S'B734'
p4954
sg4916
S'BA2586'
p4955
sg4918
S'British Airways'
p4956
sg4920
I1387554900
sba(iflightmod
Flight
p4957
(dp4958
g4911
S'Naples'
p4959
sg4913
I1387561800
sg4914
S'A319'
p4960
sg4916
S'U2997'
p4961
sg4918
S'EasyJet'
p4962
sg4920
I1387557300
sba(iflightmod
Flight
p4963
(dp4964
g4911
S'Zurich'
p4965
sg4913
I1387561800
sg4914
S'AR1'
p4966
sg4916
S'LX1664'
p4967
sg4918
S'Swiss'
p4968
sg4920
I1387557600
sba.